	.file	"acceleration.c"
# GNU C99 (Ubuntu 5.4.1-2ubuntu1~16.04) version 5.4.1 20160904 (x86_64-linux-gnu)
#	compiled by GNU C version 5.4.1 20160904, GMP version 6.1.0, MPFR version 3.1.4, MPC version 1.0.3
# GGC heuristics: --param ggc-min-expand=100 --param ggc-min-heapsize=131072
# options passed:  -fpreprocessed acceleration.i -mtune=generic
# -march=x86-64 -g -std=gnu99 -ffunction-sections -fdata-sections
# -fverbose-asm -ffat-lto-objects -fstack-protector-strong -Wformat
# -Wformat-security
# options enabled:  -faggressive-loop-optimizations
# -fasynchronous-unwind-tables -fauto-inc-dec -fchkp-check-incomplete-type
# -fchkp-check-read -fchkp-check-write -fchkp-instrument-calls
# -fchkp-narrow-bounds -fchkp-optimize -fchkp-store-bounds
# -fchkp-use-static-bounds -fchkp-use-static-const-bounds
# -fchkp-use-wrappers -fcommon -fdata-sections -fdelete-null-pointer-checks
# -fdwarf2-cfi-asm -fearly-inlining -feliminate-unused-debug-types
# -ffunction-cse -ffunction-sections -fgcse-lm -fgnu-runtime -fgnu-unique
# -fident -finline-atomics -fira-hoist-pressure -fira-share-save-slots
# -fira-share-spill-slots -fivopts -fkeep-static-consts
# -fleading-underscore -flifetime-dse -flto-odr-type-merging -fmath-errno
# -fmerge-debug-strings -fpeephole -fprefetch-loop-arrays
# -freg-struct-return -fsched-critical-path-heuristic
# -fsched-dep-count-heuristic -fsched-group-heuristic -fsched-interblock
# -fsched-last-insn-heuristic -fsched-rank-heuristic -fsched-spec
# -fsched-spec-insn-heuristic -fsched-stalled-insns-dep -fschedule-fusion
# -fsemantic-interposition -fshow-column -fsigned-zeros
# -fsplit-ivs-in-unroller -fstack-protector-strong -fstdarg-opt
# -fstrict-volatile-bitfields -fsync-libcalls -ftrapping-math
# -ftree-coalesce-vars -ftree-cselim -ftree-forwprop -ftree-loop-if-convert
# -ftree-loop-im -ftree-loop-ivcanon -ftree-loop-optimize
# -ftree-parallelize-loops= -ftree-phiprop -ftree-reassoc -ftree-scev-cprop
# -funit-at-a-time -funwind-tables -fverbose-asm -fzero-initialized-in-bss
# -m128bit-long-double -m64 -m80387 -malign-stringops
# -mavx256-split-unaligned-load -mavx256-split-unaligned-store
# -mfancy-math-387 -mfp-ret-in-387 -mfxsr -mglibc -mieee-fp
# -mlong-double-80 -mmmx -mno-sse4 -mpush-args -mred-zone -msse -msse2
# -mtls-direct-seg-refs -mvzeroupper

	.text
.Ltext0:
	.comm	U_ID_0,4,4
	.comm	U_ID_1,4,4
	.comm	U_ID_2,4,4
	.comm	__pg_registry_start,8,8
	.comm	__pg_registry_end,8,8
	.comm	__pg_resetdata_start,8,8
	.comm	__pg_resetdata_end,8,8
	.comm	profileSelection_System,1,1
	.comm	batteryConfig_System,8,8
	.comm	sensorSelectionConfig_System,3,1
	.comm	sensorAlignmentConfig_System,12,8
	.comm	sensorTrims_System,12,8
	.comm	boardAlignment_System,6,1
	.comm	featureConfig_System,4,4
	.section	.bss.accelerometerConfig_Storage,"aw",@nobits
	.align 32
	.type	accelerometerConfig_Storage, @object
	.size	accelerometerConfig_Storage, 48
accelerometerConfig_Storage:
	.zero	48
	.comm	accelerometerConfig_ProfileCurrent,8,8
	.globl	accelerometerConfig_Registry
	.section	.pg_registry,"a",@progbits
	.align 8
	.type	accelerometerConfig_Registry, @object
	.size	accelerometerConfig_Registry, 32
accelerometerConfig_Registry:
# pgn:
	.value	35
# size:
	.value	-32752
# address:
	.zero	4
	.quad	accelerometerConfig_Storage
# ptr:
	.quad	accelerometerConfig_ProfileCurrent
# reset:
# fn:
	.quad	pgResetFn_accelerometerConfig
	.section	.text.resetRollAndPitchTrims,"ax",@progbits
	.globl	resetRollAndPitchTrims
	.type	resetRollAndPitchTrims, @function
resetRollAndPitchTrims:
.LFB14:
	.file 1 "src/main/sensors/acceleration.c"
	.loc 1 51 0
	.cfi_startproc
	pushq	%rbp	#
	.cfi_def_cfa_offset 16
	.cfi_offset 6, -16
	movq	%rsp, %rbp	#,
	.cfi_def_cfa_register 6
	movq	%rdi, -8(%rbp)	# rollAndPitchTrims, rollAndPitchTrims
	.loc 1 52 0
	movq	-8(%rbp), %rax	# rollAndPitchTrims, tmp87
	movw	$0, (%rax)	#, rollAndPitchTrims_2(D)->values.roll
	movq	-8(%rbp), %rax	# rollAndPitchTrims, tmp88
	movw	$0, 2(%rax)	#, rollAndPitchTrims_2(D)->values.pitch
	.loc 1 56 0
	nop
	popq	%rbp	#
	.cfi_def_cfa 7, 8
	ret
	.cfi_endproc
.LFE14:
	.size	resetRollAndPitchTrims, .-resetRollAndPitchTrims
	.section	.text.pgResetFn_accelerometerConfig,"ax",@progbits
	.globl	pgResetFn_accelerometerConfig
	.type	pgResetFn_accelerometerConfig, @function
pgResetFn_accelerometerConfig:
.LFB15:
	.loc 1 59 0
	.cfi_startproc
	pushq	%rbp	#
	.cfi_def_cfa_offset 16
	.cfi_offset 6, -16
	movq	%rsp, %rbp	#,
	.cfi_def_cfa_register 6
	subq	$8, %rsp	#,
	movq	%rdi, -8(%rbp)	# instance, instance
	.loc 1 60 0
	movq	-8(%rbp), %rax	# instance, tmp88
	movq	$0, (%rax)	#, *instance_2(D)
	movq	$0, 8(%rax)	#, *instance_2(D)
	movq	-8(%rbp), %rax	# instance, tmp89
	movb	$15, 4(%rax)	#, instance_2(D)->acc_cut_hz
	movq	-8(%rbp), %rax	# instance, tmp90
	movss	.LC0(%rip), %xmm0	#, tmp91
	movss	%xmm0, 8(%rax)	# tmp91, instance_2(D)->accz_lpf_cutoff
	movq	-8(%rbp), %rax	# instance, tmp92
	movb	$40, 12(%rax)	#, instance_2(D)->accDeadband.xy
	movq	-8(%rbp), %rax	# instance, tmp93
	movb	$40, 13(%rax)	#, instance_2(D)->accDeadband.z
	movq	-8(%rbp), %rax	# instance, tmp94
	movb	$1, 14(%rax)	#, instance_2(D)->acc_unarmedcal
	.loc 1 67 0
	movq	-8(%rbp), %rax	# instance, D.3035
	movq	%rax, %rdi	# D.3035,
	call	resetRollAndPitchTrims	#
	.loc 1 68 0
	nop
	leave
	.cfi_def_cfa 7, 8
	ret
	.cfi_endproc
.LFE15:
	.size	pgResetFn_accelerometerConfig, .-pgResetFn_accelerometerConfig
	.comm	accADC,12,8
	.comm	acc,24,16
	.globl	accAlign
	.section	.bss.accAlign,"aw",@nobits
	.align 4
	.type	accAlign, @object
	.size	accAlign, 4
accAlign:
	.zero	4
	.globl	calibratingA
	.section	.bss.calibratingA,"aw",@nobits
	.align 2
	.type	calibratingA, @object
	.size	calibratingA, 2
calibratingA:
	.zero	2
	.globl	initialized
	.section	.bss.initialized,"aw",@nobits
	.type	initialized, @object
	.size	initialized, 1
initialized:
	.zero	1
	.section	.bss.accelerationTrims,"aw",@nobits
	.align 8
	.type	accelerationTrims, @object
	.size	accelerationTrims, 8
accelerationTrims:
	.zero	8
	.section	.text.accSetCalibrationCycles,"ax",@progbits
	.globl	accSetCalibrationCycles
	.type	accSetCalibrationCycles, @function
accSetCalibrationCycles:
.LFB16:
	.loc 1 88 0
	.cfi_startproc
	pushq	%rbp	#
	.cfi_def_cfa_offset 16
	.cfi_offset 6, -16
	movq	%rsp, %rbp	#,
	.cfi_def_cfa_register 6
	movl	%edi, %eax	# calibrationCyclesRequired, tmp87
	movw	%ax, -4(%rbp)	# tmp87, calibrationCyclesRequired
	.loc 1 89 0
	movzwl	-4(%rbp), %eax	# calibrationCyclesRequired, tmp88
	movw	%ax, calibratingA(%rip)	# tmp88, calibratingA
	.loc 1 90 0
	nop
	popq	%rbp	#
	.cfi_def_cfa 7, 8
	ret
	.cfi_endproc
.LFE16:
	.size	accSetCalibrationCycles, .-accSetCalibrationCycles
	.section	.text.isAccelerationCalibrationComplete,"ax",@progbits
	.globl	isAccelerationCalibrationComplete
	.type	isAccelerationCalibrationComplete, @function
isAccelerationCalibrationComplete:
.LFB17:
	.loc 1 93 0
	.cfi_startproc
	pushq	%rbp	#
	.cfi_def_cfa_offset 16
	.cfi_offset 6, -16
	movq	%rsp, %rbp	#,
	.cfi_def_cfa_register 6
	.loc 1 94 0
	movzwl	calibratingA(%rip), %eax	# calibratingA, D.3036
	testw	%ax, %ax	# D.3036
	sete	%al	#, D.3037
	.loc 1 95 0
	popq	%rbp	#
	.cfi_def_cfa 7, 8
	ret
	.cfi_endproc
.LFE17:
	.size	isAccelerationCalibrationComplete, .-isAccelerationCalibrationComplete
	.section	.text.isOnFinalAccelerationCalibrationCycle,"ax",@progbits
	.globl	isOnFinalAccelerationCalibrationCycle
	.type	isOnFinalAccelerationCalibrationCycle, @function
isOnFinalAccelerationCalibrationCycle:
.LFB18:
	.loc 1 98 0
	.cfi_startproc
	pushq	%rbp	#
	.cfi_def_cfa_offset 16
	.cfi_offset 6, -16
	movq	%rsp, %rbp	#,
	.cfi_def_cfa_register 6
	.loc 1 99 0
	movzwl	calibratingA(%rip), %eax	# calibratingA, D.3038
	cmpw	$1, %ax	#, D.3038
	sete	%al	#, D.3039
	.loc 1 100 0
	popq	%rbp	#
	.cfi_def_cfa 7, 8
	ret
	.cfi_endproc
.LFE18:
	.size	isOnFinalAccelerationCalibrationCycle, .-isOnFinalAccelerationCalibrationCycle
	.section	.text.isOnFirstAccelerationCalibrationCycle,"ax",@progbits
	.globl	isOnFirstAccelerationCalibrationCycle
	.type	isOnFirstAccelerationCalibrationCycle, @function
isOnFirstAccelerationCalibrationCycle:
.LFB19:
	.loc 1 103 0
	.cfi_startproc
	pushq	%rbp	#
	.cfi_def_cfa_offset 16
	.cfi_offset 6, -16
	movq	%rsp, %rbp	#,
	.cfi_def_cfa_register 6
	.loc 1 104 0
	movzwl	calibratingA(%rip), %eax	# calibratingA, D.3040
	cmpw	$400, %ax	#, D.3040
	sete	%al	#, D.3041
	.loc 1 105 0
	popq	%rbp	#
	.cfi_def_cfa 7, 8
	ret
	.cfi_endproc
.LFE19:
	.size	isOnFirstAccelerationCalibrationCycle, .-isOnFirstAccelerationCalibrationCycle
	.section	.text.performAcclerationCalibration,"ax",@progbits
	.globl	performAcclerationCalibration
	.type	performAcclerationCalibration, @function
performAcclerationCalibration:
.LFB20:
	.loc 1 108 0
	.cfi_startproc
	pushq	%rbp	#
	.cfi_def_cfa_offset 16
	.cfi_offset 6, -16
	movq	%rsp, %rbp	#,
	.cfi_def_cfa_register 6
	subq	$24, %rsp	#,
	movq	%rdi, -24(%rbp)	# rollAndPitchTrims, rollAndPitchTrims
	.loc 1 112 0
	movb	$0, -1(%rbp)	#, axis
	jmp	.L11	#
.L13:
	.loc 1 115 0
	call	isOnFirstAccelerationCalibrationCycle	#
	testb	%al, %al	# D.3042
	je	.L12	#,
	.loc 1 116 0
	movzbl	-1(%rbp), %eax	# axis, D.3043
	cltq
	movl	$0, a.2841(,%rax,4)	#, a
.L12:
	.loc 1 119 0 discriminator 2
	movzbl	-1(%rbp), %ecx	# axis, D.3043
	movzbl	-1(%rbp), %eax	# axis, D.3043
	cltq
	movl	a.2841(,%rax,4), %edx	# a, D.3043
	movzbl	-1(%rbp), %eax	# axis, D.3043
	cltq
	movl	accADC(,%rax,4), %eax	# accADC, D.3043
	addl	%eax, %edx	# D.3043, D.3043
	movslq	%ecx, %rax	# D.3043, tmp123
	movl	%edx, a.2841(,%rax,4)	# D.3043, a
	.loc 1 122 0 discriminator 2
	movzbl	-1(%rbp), %eax	# axis, D.3043
	cltq
	movl	$0, accADC(,%rax,4)	#, accADC
	.loc 1 123 0 discriminator 2
	movq	accelerationTrims(%rip), %rax	# accelerationTrims, D.3044
	movzbl	-1(%rbp), %edx	# axis, D.3043
	movslq	%edx, %rdx	# D.3043, tmp125
	movw	$0, (%rax,%rdx,2)	#, _20->raw
	.loc 1 112 0 discriminator 2
	movzbl	-1(%rbp), %eax	# axis, D.3045
	addl	$1, %eax	#, tmp126
	movb	%al, -1(%rbp)	# tmp126, axis
.L11:
	.loc 1 112 0 is_stmt 0 discriminator 1
	cmpb	$2, -1(%rbp)	#, axis
	jbe	.L13	#,
	.loc 1 126 0 is_stmt 1
	call	isOnFinalAccelerationCalibrationCycle	#
	testb	%al, %al	# D.3042
	je	.L14	#,
	.loc 1 128 0
	movq	accelerationTrims(%rip), %rsi	# accelerationTrims, D.3044
	movl	a.2841(%rip), %eax	# a, D.3043
	leal	200(%rax), %ecx	#, D.3043
	movl	$1374389535, %edx	#, tmp128
	movl	%ecx, %eax	# D.3043, tmp140
	imull	%edx	# tmp128
	sarl	$7, %edx	#, tmp129
	movl	%ecx, %eax	# D.3043, tmp130
	sarl	$31, %eax	#, tmp130
	subl	%eax, %edx	# tmp130, D.3043
	movl	%edx, %eax	# D.3043, D.3043
	movw	%ax, (%rsi)	# D.3046, _27->raw
	.loc 1 129 0
	movq	accelerationTrims(%rip), %rsi	# accelerationTrims, D.3044
	movl	a.2841+4(%rip), %eax	# a, D.3043
	leal	200(%rax), %ecx	#, D.3043
	movl	$1374389535, %edx	#, tmp132
	movl	%ecx, %eax	# D.3043, tmp141
	imull	%edx	# tmp132
	sarl	$7, %edx	#, tmp133
	movl	%ecx, %eax	# D.3043, tmp134
	sarl	$31, %eax	#, tmp134
	subl	%eax, %edx	# tmp134, D.3043
	movl	%edx, %eax	# D.3043, D.3043
	movw	%ax, 2(%rsi)	# D.3046, _33->raw
	.loc 1 130 0
	movq	accelerationTrims(%rip), %rsi	# accelerationTrims, D.3044
	movl	a.2841+8(%rip), %eax	# a, D.3043
	leal	200(%rax), %ecx	#, D.3043
	movl	$1374389535, %edx	#, tmp136
	movl	%ecx, %eax	# D.3043, tmp142
	imull	%edx	# tmp136
	sarl	$7, %edx	#, tmp137
	movl	%ecx, %eax	# D.3043, tmp138
	sarl	$31, %eax	#, tmp138
	subl	%eax, %edx	# tmp138, D.3043
	movl	%edx, %eax	# D.3043, D.3043
	movl	%eax, %edx	# D.3043, D.3047
	movzwl	acc+16(%rip), %eax	# acc.acc_1G, D.3048
	subl	%eax, %edx	# D.3048, D.3047
	movl	%edx, %eax	# D.3047, D.3047
	movw	%ax, 4(%rsi)	# D.3046, _39->raw
	.loc 1 132 0
	movq	-24(%rbp), %rax	# rollAndPitchTrims, tmp139
	movq	%rax, %rdi	# tmp139,
	call	resetRollAndPitchTrims	#
.L14:
	.loc 1 137 0
	movzwl	calibratingA(%rip), %eax	# calibratingA, D.3048
	subl	$1, %eax	#, D.3048
	movw	%ax, calibratingA(%rip)	# D.3048, calibratingA
	.loc 1 138 0
	nop
	leave
	.cfi_def_cfa 7, 8
	ret
	.cfi_endproc
.LFE20:
	.size	performAcclerationCalibration, .-performAcclerationCalibration
	.section	.text.performInflightAccelerationCalibration,"ax",@progbits
	.globl	performInflightAccelerationCalibration
	.type	performInflightAccelerationCalibration, @function
performInflightAccelerationCalibration:
.LFB21:
	.loc 1 141 0
	.cfi_startproc
	pushq	%rbp	#
	.cfi_def_cfa_offset 16
	.cfi_offset 6, -16
	movq	%rsp, %rbp	#,
	.cfi_def_cfa_register 6
	subq	$32, %rsp	#,
	movq	%rdi, -24(%rbp)	# rollAndPitchTrims, rollAndPitchTrims
	.loc 1 148 0
	movzwl	InflightcalibratingA(%rip), %eax	# InflightcalibratingA, D.3049
	cmpw	$50, %ax	#, D.3049
	jne	.L16	#,
	.loc 1 149 0
	movq	accelerationTrims(%rip), %rax	# accelerationTrims, D.3050
	movzwl	(%rax), %eax	# _10->raw, D.3051
	movw	%ax, accZero_saved.2851(%rip)	# D.3051, accZero_saved
	.loc 1 150 0
	movq	accelerationTrims(%rip), %rax	# accelerationTrims, D.3050
	movzwl	2(%rax), %eax	# _13->raw, D.3051
	movw	%ax, accZero_saved.2851+2(%rip)	# D.3051, accZero_saved
	.loc 1 151 0
	movq	accelerationTrims(%rip), %rax	# accelerationTrims, D.3050
	movzwl	4(%rax), %eax	# _16->raw, D.3051
	movw	%ax, accZero_saved.2851+4(%rip)	# D.3051, accZero_saved
	.loc 1 152 0
	movq	-24(%rbp), %rax	# rollAndPitchTrims, tmp136
	movzwl	(%rax), %eax	# rollAndPitchTrims_19(D)->values.roll, D.3051
	movw	%ax, angleTrim_saved.2852(%rip)	# D.3051, angleTrim_saved.values.roll
	.loc 1 153 0
	movq	-24(%rbp), %rax	# rollAndPitchTrims, tmp137
	movzwl	2(%rax), %eax	# rollAndPitchTrims_19(D)->values.pitch, D.3051
	movw	%ax, angleTrim_saved.2852+2(%rip)	# D.3051, angleTrim_saved.values.pitch
.L16:
	.loc 1 155 0
	movzwl	InflightcalibratingA(%rip), %eax	# InflightcalibratingA, D.3049
	testw	%ax, %ax	# D.3049
	je	.L17	#,
	.loc 1 156 0
	movb	$0, -1(%rbp)	#, axis
	jmp	.L18	#
.L20:
	.loc 1 158 0
	movzwl	InflightcalibratingA(%rip), %eax	# InflightcalibratingA, D.3049
	cmpw	$50, %ax	#, D.3049
	jne	.L19	#,
	.loc 1 159 0
	movzbl	-1(%rbp), %eax	# axis, D.3052
	cltq
	movl	$0, b.2850(,%rax,4)	#, b
.L19:
	.loc 1 161 0 discriminator 2
	movzbl	-1(%rbp), %ecx	# axis, D.3052
	movzbl	-1(%rbp), %eax	# axis, D.3052
	cltq
	movl	b.2850(,%rax,4), %edx	# b, D.3052
	movzbl	-1(%rbp), %eax	# axis, D.3052
	cltq
	movl	accADC(,%rax,4), %eax	# accADC, D.3052
	addl	%eax, %edx	# D.3052, D.3052
	movslq	%ecx, %rax	# D.3052, tmp141
	movl	%edx, b.2850(,%rax,4)	# D.3052, b
	.loc 1 163 0 discriminator 2
	movzbl	-1(%rbp), %eax	# axis, D.3052
	cltq
	movl	$0, accADC(,%rax,4)	#, accADC
	.loc 1 164 0 discriminator 2
	movq	accelerationTrims(%rip), %rax	# accelerationTrims, D.3050
	movzbl	-1(%rbp), %edx	# axis, D.3052
	movslq	%edx, %rdx	# D.3052, tmp143
	movw	$0, (%rax,%rdx,2)	#, _38->raw
	.loc 1 156 0 discriminator 2
	movzbl	-1(%rbp), %eax	# axis, D.3053
	addl	$1, %eax	#, tmp144
	movb	%al, -1(%rbp)	# tmp144, axis
.L18:
	.loc 1 156 0 is_stmt 0 discriminator 1
	cmpb	$2, -1(%rbp)	#, axis
	jbe	.L20	#,
	.loc 1 167 0 is_stmt 1
	movzwl	InflightcalibratingA(%rip), %eax	# InflightcalibratingA, D.3049
	cmpw	$1, %ax	#, D.3049
	jne	.L21	#,
	.loc 1 168 0
	movb	$0, AccInflightCalibrationActive(%rip)	#, AccInflightCalibrationActive
	.loc 1 169 0
	movb	$1, AccInflightCalibrationMeasurementDone(%rip)	#, AccInflightCalibrationMeasurementDone
	.loc 1 170 0
	movl	$12, %edi	#,
	call	beeper	#
	.loc 1 172 0
	movq	accelerationTrims(%rip), %rax	# accelerationTrims, D.3050
	movzwl	accZero_saved.2851(%rip), %edx	# accZero_saved, D.3051
	movw	%dx, (%rax)	# D.3051, _47->raw
	.loc 1 173 0
	movq	accelerationTrims(%rip), %rax	# accelerationTrims, D.3050
	movzwl	accZero_saved.2851+2(%rip), %edx	# accZero_saved, D.3051
	movw	%dx, 2(%rax)	# D.3051, _50->raw
	.loc 1 174 0
	movq	accelerationTrims(%rip), %rax	# accelerationTrims, D.3050
	movzwl	accZero_saved.2851+4(%rip), %edx	# accZero_saved, D.3051
	movw	%dx, 4(%rax)	# D.3051, _53->raw
	.loc 1 175 0
	movzwl	angleTrim_saved.2852(%rip), %edx	# angleTrim_saved.values.roll, D.3051
	movq	-24(%rbp), %rax	# rollAndPitchTrims, tmp145
	movw	%dx, (%rax)	# D.3051, rollAndPitchTrims_19(D)->values.roll
	.loc 1 176 0
	movzwl	angleTrim_saved.2852+2(%rip), %edx	# angleTrim_saved.values.pitch, D.3051
	movq	-24(%rbp), %rax	# rollAndPitchTrims, tmp146
	movw	%dx, 2(%rax)	# D.3051, rollAndPitchTrims_19(D)->values.pitch
.L21:
	.loc 1 178 0
	movzwl	InflightcalibratingA(%rip), %eax	# InflightcalibratingA, D.3049
	subl	$1, %eax	#, D.3049
	movw	%ax, InflightcalibratingA(%rip)	# D.3049, InflightcalibratingA
.L17:
	.loc 1 181 0
	movzbl	AccInflightCalibrationSavetoEEProm(%rip), %eax	# AccInflightCalibrationSavetoEEProm, D.3054
	testb	%al, %al	# D.3054
	je	.L23	#,
	.loc 1 182 0
	movb	$0, AccInflightCalibrationSavetoEEProm(%rip)	#, AccInflightCalibrationSavetoEEProm
	.loc 1 183 0
	movq	accelerationTrims(%rip), %rsi	# accelerationTrims, D.3050
	movl	b.2850(%rip), %ecx	# b, D.3052
	movl	$1374389535, %edx	#, tmp148
	movl	%ecx, %eax	# D.3052, tmp160
	imull	%edx	# tmp148
	sarl	$4, %edx	#, tmp149
	movl	%ecx, %eax	# D.3052, tmp150
	sarl	$31, %eax	#, tmp150
	subl	%eax, %edx	# tmp150, D.3052
	movl	%edx, %eax	# D.3052, D.3052
	movw	%ax, (%rsi)	# D.3051, _66->raw
	.loc 1 184 0
	movq	accelerationTrims(%rip), %rsi	# accelerationTrims, D.3050
	movl	b.2850+4(%rip), %ecx	# b, D.3052
	movl	$1374389535, %edx	#, tmp152
	movl	%ecx, %eax	# D.3052, tmp161
	imull	%edx	# tmp152
	sarl	$4, %edx	#, tmp153
	movl	%ecx, %eax	# D.3052, tmp154
	sarl	$31, %eax	#, tmp154
	subl	%eax, %edx	# tmp154, D.3052
	movl	%edx, %eax	# D.3052, D.3052
	movw	%ax, 2(%rsi)	# D.3051, _71->raw
	.loc 1 185 0
	movq	accelerationTrims(%rip), %rsi	# accelerationTrims, D.3050
	movl	b.2850+8(%rip), %ecx	# b, D.3052
	movl	$1374389535, %edx	#, tmp156
	movl	%ecx, %eax	# D.3052, tmp162
	imull	%edx	# tmp156
	sarl	$4, %edx	#, tmp157
	movl	%ecx, %eax	# D.3052, tmp158
	sarl	$31, %eax	#, tmp158
	subl	%eax, %edx	# tmp158, D.3052
	movl	%edx, %eax	# D.3052, D.3052
	movl	%eax, %edx	# D.3052, D.3055
	movzwl	acc+16(%rip), %eax	# acc.acc_1G, D.3049
	subl	%eax, %edx	# D.3049, D.3055
	movl	%edx, %eax	# D.3055, D.3055
	movw	%ax, 4(%rsi)	# D.3051, _76->raw
	.loc 1 187 0
	movq	-24(%rbp), %rax	# rollAndPitchTrims, tmp159
	movq	%rax, %rdi	# tmp159,
	call	resetRollAndPitchTrims	#
.L23:
	.loc 1 191 0
	nop
	leave
	.cfi_def_cfa 7, 8
	ret
	.cfi_endproc
.LFE21:
	.size	performInflightAccelerationCalibration, .-performInflightAccelerationCalibration
	.section	.text.applyAccelerationTrims,"ax",@progbits
	.globl	applyAccelerationTrims
	.type	applyAccelerationTrims, @function
applyAccelerationTrims:
.LFB22:
	.loc 1 194 0
	.cfi_startproc
	pushq	%rbp	#
	.cfi_def_cfa_offset 16
	.cfi_offset 6, -16
	movq	%rsp, %rbp	#,
	.cfi_def_cfa_register 6
	movq	%rdi, -8(%rbp)	# accelerationTrims, accelerationTrims
	.loc 1 195 0
	movl	accADC(%rip), %edx	# accADC, D.3056
	movq	-8(%rbp), %rax	# accelerationTrims, tmp99
	movzwl	(%rax), %eax	# accelerationTrims_3(D)->raw, D.3057
	cwtl
	subl	%eax, %edx	# D.3056, D.3056
	movl	%edx, %eax	# D.3056, D.3056
	movl	%eax, accADC(%rip)	# D.3056, accADC
	.loc 1 196 0
	movl	accADC+4(%rip), %edx	# accADC, D.3056
	movq	-8(%rbp), %rax	# accelerationTrims, tmp100
	movzwl	2(%rax), %eax	# accelerationTrims_3(D)->raw, D.3057
	cwtl
	subl	%eax, %edx	# D.3056, D.3056
	movl	%edx, %eax	# D.3056, D.3056
	movl	%eax, accADC+4(%rip)	# D.3056, accADC
	.loc 1 197 0
	movl	accADC+8(%rip), %edx	# accADC, D.3056
	movq	-8(%rbp), %rax	# accelerationTrims, tmp101
	movzwl	4(%rax), %eax	# accelerationTrims_3(D)->raw, D.3057
	cwtl
	subl	%eax, %edx	# D.3056, D.3056
	movl	%edx, %eax	# D.3056, D.3056
	movl	%eax, accADC+8(%rip)	# D.3056, accADC
	.loc 1 198 0
	nop
	popq	%rbp	#
	.cfi_def_cfa 7, 8
	ret
	.cfi_endproc
.LFE22:
	.size	applyAccelerationTrims, .-applyAccelerationTrims
	.section	.text.convertRawACCADCReadingsToInternalType,"ax",@progbits
	.type	convertRawACCADCReadingsToInternalType, @function
convertRawACCADCReadingsToInternalType:
.LFB23:
	.loc 1 201 0
	.cfi_startproc
	pushq	%rbp	#
	.cfi_def_cfa_offset 16
	.cfi_offset 6, -16
	movq	%rsp, %rbp	#,
	.cfi_def_cfa_register 6
	movq	%rdi, -24(%rbp)	# accADCRaw, accADCRaw
	.loc 1 204 0
	movl	$0, -4(%rbp)	#, axis
	jmp	.L26	#
.L27:
	.loc 1 205 0 discriminator 3
	movl	-4(%rbp), %eax	# axis, tmp92
	cltq
	leaq	(%rax,%rax), %rdx	#, D.3058
	movq	-24(%rbp), %rax	# accADCRaw, tmp93
	addq	%rdx, %rax	# D.3058, D.3059
	movzwl	(%rax), %eax	# *_8, D.3060
	movswl	%ax, %edx	# D.3060, D.3061
	movl	-4(%rbp), %eax	# axis, tmp95
	cltq
	movl	%edx, accADC(,%rax,4)	# D.3061, accADC
	.loc 1 204 0 discriminator 3
	addl	$1, -4(%rbp)	#, axis
.L26:
	.loc 1 204 0 is_stmt 0 discriminator 1
	cmpl	$2, -4(%rbp)	#, axis
	jle	.L27	#,
	.loc 1 207 0 is_stmt 1
	nop
	popq	%rbp	#
	.cfi_def_cfa 7, 8
	ret
	.cfi_endproc
.LFE23:
	.size	convertRawACCADCReadingsToInternalType, .-convertRawACCADCReadingsToInternalType
	.section	.text.updateAccelerationReadings,"ax",@progbits
	.globl	updateAccelerationReadings
	.type	updateAccelerationReadings, @function
updateAccelerationReadings:
.LFB24:
	.loc 1 210 0
	.cfi_startproc
	pushq	%rbp	#
	.cfi_def_cfa_offset 16
	.cfi_offset 6, -16
	movq	%rsp, %rbp	#,
	.cfi_def_cfa_register 6
	subq	$32, %rsp	#,
	movq	%rdi, -24(%rbp)	# rollAndPitchTrims, rollAndPitchTrims
	.loc 1 210 0
	movq	%fs:40, %rax	#, tmp105
	movq	%rax, -8(%rbp)	# tmp105, D.3069
	xorl	%eax, %eax	# tmp105
	.loc 1 211 0
	movzbl	initialized(%rip), %eax	# initialized, D.3062
	xorl	$1, %eax	#, D.3062
	testb	%al, %al	# D.3062
	je	.L29	#,
	.loc 1 213 0
	movl	$6, %edi	#,
	call	malloc	#
	movq	%rax, accelerationTrims(%rip)	# D.3063, accelerationTrims
	.loc 1 214 0
	movb	$1, initialized(%rip)	#, initialized
.L29:
	.loc 1 219 0
	movq	acc+8(%rip), %rax	# acc.read, D.3064
	leaq	-16(%rbp), %rdx	#, tmp101
	movq	%rdx, %rdi	# tmp101,
	call	*%rax	# D.3064
	xorl	$1, %eax	#, D.3062
	testb	%al, %al	# D.3062
	jne	.L35	#,
	.loc 1 223 0
	leaq	-16(%rbp), %rax	#, tmp102
	movq	%rax, %rdi	# tmp102,
	call	convertRawACCADCReadingsToInternalType	#
	.loc 1 225 0
	movl	accAlign(%rip), %eax	# accAlign, D.3065
	movzbl	%al, %eax	# D.3066, D.3067
	movl	%eax, %edx	# D.3067,
	movl	$accADC, %esi	#,
	movl	$accADC, %edi	#,
	call	alignSensors	#
	.loc 1 227 0
	call	isAccelerationCalibrationComplete	#
	xorl	$1, %eax	#, D.3062
	testb	%al, %al	# D.3062
	je	.L32	#,
	.loc 1 228 0
	movq	-24(%rbp), %rax	# rollAndPitchTrims, tmp103
	movq	%rax, %rdi	# tmp103,
	call	performAcclerationCalibration	#
.L32:
	.loc 1 231 0
	movl	$4, %edi	#,
	call	feature	#
	testb	%al, %al	# D.3062
	je	.L33	#,
	.loc 1 232 0
	movq	-24(%rbp), %rax	# rollAndPitchTrims, tmp104
	movq	%rax, %rdi	# tmp104,
	call	performInflightAccelerationCalibration	#
.L33:
	.loc 1 235 0
	movq	accelerationTrims(%rip), %rax	# accelerationTrims, D.3068
	movq	%rax, %rdi	# D.3068,
	call	applyAccelerationTrims	#
	jmp	.L28	#
.L35:
	.loc 1 220 0
	nop
.L28:
	.loc 1 236 0
	movq	-8(%rbp), %rax	# D.3069, tmp106
	xorq	%fs:40, %rax	#, tmp106
	je	.L34	#,
	call	__stack_chk_fail	#
.L34:
	leave
	.cfi_def_cfa 7, 8
	ret
	.cfi_endproc
.LFE24:
	.size	updateAccelerationReadings, .-updateAccelerationReadings
	.section	.text.setAccelerationTrims,"ax",@progbits
	.globl	setAccelerationTrims
	.type	setAccelerationTrims, @function
setAccelerationTrims:
.LFB25:
	.loc 1 239 0
	.cfi_startproc
	pushq	%rbp	#
	.cfi_def_cfa_offset 16
	.cfi_offset 6, -16
	movq	%rsp, %rbp	#,
	.cfi_def_cfa_register 6
	movq	%rdi, -8(%rbp)	# accelerationTrimsToUse, accelerationTrimsToUse
	.loc 1 240 0
	movq	-8(%rbp), %rax	# accelerationTrimsToUse, tmp87
	movq	%rax, accelerationTrims(%rip)	# tmp87, accelerationTrims
	.loc 1 241 0
	nop
	popq	%rbp	#
	.cfi_def_cfa 7, 8
	ret
	.cfi_endproc
.LFE25:
	.size	setAccelerationTrims, .-setAccelerationTrims
	.section	.bss.a.2841,"aw",@nobits
	.align 8
	.type	a.2841, @object
	.size	a.2841, 12
a.2841:
	.zero	12
	.section	.bss.accZero_saved.2851,"aw",@nobits
	.align 2
	.type	accZero_saved.2851, @object
	.size	accZero_saved.2851, 6
accZero_saved.2851:
	.zero	6
	.section	.bss.angleTrim_saved.2852,"aw",@nobits
	.align 2
	.type	angleTrim_saved.2852, @object
	.size	angleTrim_saved.2852, 4
angleTrim_saved.2852:
	.zero	4
	.section	.bss.b.2850,"aw",@nobits
	.align 8
	.type	b.2850, @object
	.size	b.2850, 12
b.2850:
	.zero	12
	.section	.rodata
	.align 4
.LC0:
	.long	1084227584
	.text
.Letext0:
	.file 2 "/usr/include/stdint.h"
	.file 3 "./src/main/config/parameter_group.h"
	.file 4 "./src/main/common/axis.h"
	.file 5 "./src/main/config/profile.h"
	.file 6 "./src/main/drivers/sensor.h"
	.file 7 "./src/main/drivers/accgyro.h"
	.file 8 "./src/main/fc/config.h"
	.file 9 "./src/main/io/beeper.h"
	.file 10 "./src/main/sensors/battery.h"
	.file 11 "./src/main/sensors/sensors.h"
	.file 12 "./src/main/sensors/boardalignment.h"
	.file 13 "./src/main/config/feature.h"
	.file 14 "./src/main/sensors/acceleration.h"
	.file 15 "./src/main/target/edison/target.h"
	.section	.note.GNU-stack,"",@progbits
