	.file	"boardalignment.c"
# GNU C99 (Ubuntu 5.4.1-2ubuntu1~16.04) version 5.4.1 20160904 (x86_64-linux-gnu)
#	compiled by GNU C version 5.4.1 20160904, GMP version 6.1.0, MPFR version 3.1.4, MPC version 1.0.3
# GGC heuristics: --param ggc-min-expand=100 --param ggc-min-heapsize=131072
# options passed:  -fpreprocessed boardalignment.i -mtune=generic
# -march=x86-64 -g -std=gnu99 -ffunction-sections -fdata-sections
# -fverbose-asm -ffat-lto-objects -fstack-protector-strong -Wformat
# -Wformat-security
# options enabled:  -faggressive-loop-optimizations
# -fasynchronous-unwind-tables -fauto-inc-dec -fchkp-check-incomplete-type
# -fchkp-check-read -fchkp-check-write -fchkp-instrument-calls
# -fchkp-narrow-bounds -fchkp-optimize -fchkp-store-bounds
# -fchkp-use-static-bounds -fchkp-use-static-const-bounds
# -fchkp-use-wrappers -fcommon -fdata-sections -fdelete-null-pointer-checks
# -fdwarf2-cfi-asm -fearly-inlining -feliminate-unused-debug-types
# -ffunction-cse -ffunction-sections -fgcse-lm -fgnu-runtime -fgnu-unique
# -fident -finline-atomics -fira-hoist-pressure -fira-share-save-slots
# -fira-share-spill-slots -fivopts -fkeep-static-consts
# -fleading-underscore -flifetime-dse -flto-odr-type-merging -fmath-errno
# -fmerge-debug-strings -fpeephole -fprefetch-loop-arrays
# -freg-struct-return -fsched-critical-path-heuristic
# -fsched-dep-count-heuristic -fsched-group-heuristic -fsched-interblock
# -fsched-last-insn-heuristic -fsched-rank-heuristic -fsched-spec
# -fsched-spec-insn-heuristic -fsched-stalled-insns-dep -fschedule-fusion
# -fsemantic-interposition -fshow-column -fsigned-zeros
# -fsplit-ivs-in-unroller -fstack-protector-strong -fstdarg-opt
# -fstrict-volatile-bitfields -fsync-libcalls -ftrapping-math
# -ftree-coalesce-vars -ftree-cselim -ftree-forwprop -ftree-loop-if-convert
# -ftree-loop-im -ftree-loop-ivcanon -ftree-loop-optimize
# -ftree-parallelize-loops= -ftree-phiprop -ftree-reassoc -ftree-scev-cprop
# -funit-at-a-time -funwind-tables -fverbose-asm -fzero-initialized-in-bss
# -m128bit-long-double -m64 -m80387 -malign-stringops
# -mavx256-split-unaligned-load -mavx256-split-unaligned-store
# -mfancy-math-387 -mfp-ret-in-387 -mfxsr -mglibc -mieee-fp
# -mlong-double-80 -mmmx -mno-sse4 -mpush-args -mred-zone -msse -msse2
# -mtls-direct-seg-refs -mvzeroupper

	.text
.Ltext0:
	.comm	__pg_registry_start,8,8
	.comm	__pg_registry_end,8,8
	.comm	__pg_resetdata_start,8,8
	.comm	__pg_resetdata_end,8,8
	.comm	sensorSelectionConfig_System,3,1
	.comm	sensorAlignmentConfig_System,12,8
	.comm	sensorTrims_System,12,8
	.comm	boardAlignment_System,6,1
	.section	.text.boardAlignment,"ax",@progbits
	.type	boardAlignment, @function
boardAlignment:
.LFB7:
	.file 1 "src/main/sensors/boardalignment.h"
	.loc 1 26 0
	.cfi_startproc
	pushq	%rbp	#
	.cfi_def_cfa_offset 16
	.cfi_offset 6, -16
	movq	%rsp, %rbp	#,
	.cfi_def_cfa_register 6
	.loc 1 26 0
	movl	$boardAlignment_System, %eax	#, D.3491
	popq	%rbp	#
	.cfi_def_cfa 7, 8
	ret
	.cfi_endproc
.LFE7:
	.size	boardAlignment, .-boardAlignment
	.globl	boardAlignment_Registry
	.section	.pg_registry,"a",@progbits
	.align 8
	.type	boardAlignment_Registry, @object
	.size	boardAlignment_Registry, 32
boardAlignment_Registry:
# pgn:
	.value	2
# size:
	.value	6
# address:
	.zero	4
	.quad	boardAlignment_System
# ptr:
	.quad	0
# reset:
# ptr:
	.quad	0
	.section	.data.standardBoardAlignment,"aw",@progbits
	.type	standardBoardAlignment, @object
	.size	standardBoardAlignment, 1
standardBoardAlignment:
	.byte	1
	.section	.bss.boardRotation,"aw",@nobits
	.align 32
	.type	boardRotation, @object
	.size	boardRotation, 36
boardRotation:
	.zero	36
	.section	.text.isBoardAlignmentStandard,"ax",@progbits
	.type	isBoardAlignmentStandard, @function
isBoardAlignmentStandard:
.LFB8:
	.file 2 "src/main/sensors/boardalignment.c"
	.loc 2 39 0
	.cfi_startproc
	pushq	%rbp	#
	.cfi_def_cfa_offset 16
	.cfi_offset 6, -16
	movq	%rsp, %rbp	#,
	.cfi_def_cfa_register 6
	movq	%rdi, -8(%rbp)	# boardAlignment, boardAlignment
	.loc 2 40 0
	movq	-8(%rbp), %rax	# boardAlignment, tmp93
	movzwl	(%rax), %eax	# boardAlignment_3(D)->rollDegrees, D.3493
	testw	%ax, %ax	# D.3493
	jne	.L4	#,
	.loc 2 40 0 is_stmt 0 discriminator 1
	movq	-8(%rbp), %rax	# boardAlignment, tmp94
	movzwl	2(%rax), %eax	# boardAlignment_3(D)->pitchDegrees, D.3493
	testw	%ax, %ax	# D.3493
	jne	.L4	#,
	.loc 2 40 0 discriminator 3
	movq	-8(%rbp), %rax	# boardAlignment, tmp95
	movzwl	4(%rax), %eax	# boardAlignment_3(D)->yawDegrees, D.3493
	testw	%ax, %ax	# D.3493
	jne	.L4	#,
	.loc 2 40 0 discriminator 5
	movl	$1, %eax	#, D.3492
	jmp	.L5	#
.L4:
	.loc 2 40 0 discriminator 6
	movl	$0, %eax	#, D.3492
.L5:
	.loc 2 40 0 discriminator 8
	andl	$1, %eax	#, D.3494
	.loc 2 41 0 is_stmt 1 discriminator 8
	popq	%rbp	#
	.cfi_def_cfa 7, 8
	ret
	.cfi_endproc
.LFE8:
	.size	isBoardAlignmentStandard, .-isBoardAlignmentStandard
	.section	.text.initBoardAlignment,"ax",@progbits
	.globl	initBoardAlignment
	.type	initBoardAlignment, @function
initBoardAlignment:
.LFB9:
	.loc 2 44 0
	.cfi_startproc
	pushq	%rbp	#
	.cfi_def_cfa_offset 16
	.cfi_offset 6, -16
	movq	%rsp, %rbp	#,
	.cfi_def_cfa_register 6
	subq	$32, %rsp	#,
	.loc 2 44 0
	movq	%fs:40, %rax	#, tmp102
	movq	%rax, -8(%rbp)	# tmp102, D.3500
	xorl	%eax, %eax	# tmp102
	.loc 2 45 0
	call	boardAlignment	#
	movq	%rax, %rdi	# D.3495,
	call	isBoardAlignmentStandard	#
	testb	%al, %al	# D.3496
	jne	.L11	#,
	.loc 2 49 0
	movb	$0, standardBoardAlignment(%rip)	#, standardBoardAlignment
	.loc 2 52 0
	call	boardAlignment	#
	movzwl	(%rax), %eax	# _9->rollDegrees, D.3497
	cwtl
	movl	%eax, %edi	# D.3498,
	call	degreesToRadians	#
	movd	%xmm0, %eax	#, D.3499
	movl	%eax, -32(%rbp)	# D.3499, rotationAngles.angles.roll
	.loc 2 53 0
	call	boardAlignment	#
	movzwl	2(%rax), %eax	# _16->pitchDegrees, D.3497
	cwtl
	movl	%eax, %edi	# D.3498,
	call	degreesToRadians	#
	movd	%xmm0, %eax	#, D.3499
	movl	%eax, -28(%rbp)	# D.3499, rotationAngles.angles.pitch
	.loc 2 54 0
	call	boardAlignment	#
	movzwl	4(%rax), %eax	# _23->yawDegrees, D.3497
	cwtl
	movl	%eax, %edi	# D.3498,
	call	degreesToRadians	#
	movd	%xmm0, %eax	#, D.3499
	movl	%eax, -24(%rbp)	# D.3499, rotationAngles.angles.yaw
	.loc 2 56 0
	leaq	-32(%rbp), %rax	#, tmp101
	movl	$boardRotation, %esi	#,
	movq	%rax, %rdi	# tmp101,
	call	buildRotationMatrix	#
	jmp	.L7	#
.L11:
	.loc 2 46 0
	nop
.L7:
	.loc 2 57 0
	movq	-8(%rbp), %rax	# D.3500, tmp103
	xorq	%fs:40, %rax	#, tmp103
	je	.L10	#,
	call	__stack_chk_fail	#
.L10:
	leave
	.cfi_def_cfa 7, 8
	ret
	.cfi_endproc
.LFE9:
	.size	initBoardAlignment, .-initBoardAlignment
	.section	.text.alignBoard,"ax",@progbits
	.type	alignBoard, @function
alignBoard:
.LFB10:
	.loc 2 60 0
	.cfi_startproc
	pushq	%rbp	#
	.cfi_def_cfa_offset 16
	.cfi_offset 6, -16
	movq	%rsp, %rbp	#,
	.cfi_def_cfa_register 6
	pushq	%rbx	#
	subq	$40, %rsp	#,
	.cfi_offset 3, -24
	movq	%rdi, -40(%rbp)	# vec, vec
	.loc 2 61 0
	movq	-40(%rbp), %rax	# vec, tmp128
	movl	(%rax), %eax	# *vec_2(D), tmp129
	movl	%eax, -28(%rbp)	# tmp129, x
	.loc 2 62 0
	movq	-40(%rbp), %rax	# vec, tmp130
	movl	4(%rax), %eax	# MEM[(int32_t *)vec_2(D) + 4B], tmp131
	movl	%eax, -24(%rbp)	# tmp131, y
	.loc 2 63 0
	movq	-40(%rbp), %rax	# vec, tmp132
	movl	8(%rax), %eax	# MEM[(int32_t *)vec_2(D) + 8B], tmp133
	movl	%eax, -20(%rbp)	# tmp133, z
	.loc 2 65 0
	movss	boardRotation(%rip), %xmm1	# boardRotation, D.3503
	pxor	%xmm0, %xmm0	# D.3503
	cvtsi2ss	-28(%rbp), %xmm0	# x, D.3503
	mulss	%xmm0, %xmm1	# D.3503, D.3503
	movss	boardRotation+12(%rip), %xmm2	# boardRotation, D.3503
	pxor	%xmm0, %xmm0	# D.3503
	cvtsi2ss	-24(%rbp), %xmm0	# y, D.3503
	mulss	%xmm2, %xmm0	# D.3503, D.3503
	addss	%xmm0, %xmm1	# D.3503, D.3503
	movss	boardRotation+24(%rip), %xmm2	# boardRotation, D.3503
	pxor	%xmm0, %xmm0	# D.3503
	cvtsi2ss	-20(%rbp), %xmm0	# z, D.3503
	mulss	%xmm2, %xmm0	# D.3503, D.3503
	addss	%xmm1, %xmm0	# D.3503, D.3503
	call	lrintf	#
	movl	%eax, %edx	# D.3504, D.3505
	movq	-40(%rbp), %rax	# vec, tmp134
	movl	%edx, (%rax)	# D.3505, *vec_2(D)
	.loc 2 66 0
	movq	-40(%rbp), %rax	# vec, tmp135
	leaq	4(%rax), %rbx	#, D.3506
	movss	boardRotation+4(%rip), %xmm1	# boardRotation, D.3503
	pxor	%xmm0, %xmm0	# D.3503
	cvtsi2ss	-28(%rbp), %xmm0	# x, D.3503
	mulss	%xmm0, %xmm1	# D.3503, D.3503
	movss	boardRotation+16(%rip), %xmm2	# boardRotation, D.3503
	pxor	%xmm0, %xmm0	# D.3503
	cvtsi2ss	-24(%rbp), %xmm0	# y, D.3503
	mulss	%xmm2, %xmm0	# D.3503, D.3503
	addss	%xmm0, %xmm1	# D.3503, D.3503
	movss	boardRotation+28(%rip), %xmm2	# boardRotation, D.3503
	pxor	%xmm0, %xmm0	# D.3503
	cvtsi2ss	-20(%rbp), %xmm0	# z, D.3503
	mulss	%xmm2, %xmm0	# D.3503, D.3503
	addss	%xmm1, %xmm0	# D.3503, D.3503
	call	lrintf	#
	movl	%eax, (%rbx)	# D.3505, *_21
	.loc 2 67 0
	movq	-40(%rbp), %rax	# vec, tmp136
	leaq	8(%rax), %rbx	#, D.3506
	movss	boardRotation+8(%rip), %xmm1	# boardRotation, D.3503
	pxor	%xmm0, %xmm0	# D.3503
	cvtsi2ss	-28(%rbp), %xmm0	# x, D.3503
	mulss	%xmm0, %xmm1	# D.3503, D.3503
	movss	boardRotation+20(%rip), %xmm2	# boardRotation, D.3503
	pxor	%xmm0, %xmm0	# D.3503
	cvtsi2ss	-24(%rbp), %xmm0	# y, D.3503
	mulss	%xmm2, %xmm0	# D.3503, D.3503
	addss	%xmm0, %xmm1	# D.3503, D.3503
	movss	boardRotation+32(%rip), %xmm2	# boardRotation, D.3503
	pxor	%xmm0, %xmm0	# D.3503
	cvtsi2ss	-20(%rbp), %xmm0	# z, D.3503
	mulss	%xmm2, %xmm0	# D.3503, D.3503
	addss	%xmm1, %xmm0	# D.3503, D.3503
	call	lrintf	#
	movl	%eax, (%rbx)	# D.3505, *_37
	.loc 2 68 0
	nop
	addq	$40, %rsp	#,
	popq	%rbx	#
	popq	%rbp	#
	.cfi_def_cfa 7, 8
	ret
	.cfi_endproc
.LFE10:
	.size	alignBoard, .-alignBoard
	.section	.text.alignSensors,"ax",@progbits
	.globl	alignSensors
	.type	alignSensors, @function
alignSensors:
.LFB11:
	.loc 2 71 0
	.cfi_startproc
	pushq	%rbp	#
	.cfi_def_cfa_offset 16
	.cfi_offset 6, -16
	movq	%rsp, %rbp	#,
	.cfi_def_cfa_register 6
	subq	$32, %rsp	#,
	movq	%rdi, -8(%rbp)	# src, src
	movq	%rsi, -16(%rbp)	# dest, dest
	movl	%edx, %eax	# rotation, tmp166
	movb	%al, -20(%rbp)	# tmp166, rotation
	.loc 2 73 0
	movq	-8(%rbp), %rax	# src, tmp167
	movl	$12, %edx	#,
	movq	%rax, %rsi	# tmp167,
	movl	$swap.3320, %edi	#,
	call	memcpy	#
	.loc 2 75 0
	movzbl	-20(%rbp), %eax	# rotation, D.3507
	cmpl	$8, %eax	#, D.3507
	ja	.L14	#,
	movl	%eax, %eax	# D.3507, tmp168
	movq	.L16(,%rax,8), %rax	#, tmp169
	jmp	*%rax	# tmp169
	.section	.rodata.alignSensors,"a",@progbits
	.align 8
	.align 4
.L16:
	.quad	.L14
	.quad	.L14
	.quad	.L15
	.quad	.L17
	.quad	.L18
	.quad	.L19
	.quad	.L20
	.quad	.L21
	.quad	.L22
	.section	.text.alignSensors
.L14:
	.loc 2 78 0
	movl	swap.3320(%rip), %eax	# swap, D.3508
	movl	%eax, %edx	# D.3508, D.3507
	movq	-16(%rbp), %rax	# dest, tmp170
	movl	%edx, (%rax)	# D.3507, *dest_10(D)
	.loc 2 79 0
	movq	-16(%rbp), %rax	# dest, tmp171
	addq	$4, %rax	#, D.3509
	movl	swap.3320+4(%rip), %edx	# swap, D.3508
	movl	%edx, (%rax)	# D.3507, *_12
	.loc 2 80 0
	movq	-16(%rbp), %rax	# dest, tmp172
	addq	$8, %rax	#, D.3509
	movl	swap.3320+8(%rip), %edx	# swap, D.3508
	movl	%edx, (%rax)	# D.3507, *_16
	.loc 2 81 0
	jmp	.L23	#
.L15:
	.loc 2 83 0
	movl	swap.3320+4(%rip), %eax	# swap, D.3508
	movl	%eax, %edx	# D.3508, D.3507
	movq	-16(%rbp), %rax	# dest, tmp173
	movl	%edx, (%rax)	# D.3507, *dest_10(D)
	.loc 2 84 0
	movq	-16(%rbp), %rax	# dest, tmp174
	addq	$4, %rax	#, D.3509
	movl	swap.3320(%rip), %edx	# swap, D.3508
	negl	%edx	# D.3508
	movl	%edx, (%rax)	# D.3507, *_23
	.loc 2 85 0
	movq	-16(%rbp), %rax	# dest, tmp175
	addq	$8, %rax	#, D.3509
	movl	swap.3320+8(%rip), %edx	# swap, D.3508
	movl	%edx, (%rax)	# D.3507, *_28
	.loc 2 86 0
	jmp	.L23	#
.L17:
	.loc 2 88 0
	movl	swap.3320(%rip), %eax	# swap, D.3508
	negl	%eax	# D.3508
	movl	%eax, %edx	# D.3508, D.3507
	movq	-16(%rbp), %rax	# dest, tmp176
	movl	%edx, (%rax)	# D.3507, *dest_10(D)
	.loc 2 89 0
	movq	-16(%rbp), %rax	# dest, tmp177
	addq	$4, %rax	#, D.3509
	movl	swap.3320+4(%rip), %edx	# swap, D.3508
	negl	%edx	# D.3508
	movl	%edx, (%rax)	# D.3507, *_36
	.loc 2 90 0
	movq	-16(%rbp), %rax	# dest, tmp178
	addq	$8, %rax	#, D.3509
	movl	swap.3320+8(%rip), %edx	# swap, D.3508
	movl	%edx, (%rax)	# D.3507, *_41
	.loc 2 91 0
	jmp	.L23	#
.L18:
	.loc 2 93 0
	movl	swap.3320+4(%rip), %eax	# swap, D.3508
	negl	%eax	# D.3508
	movl	%eax, %edx	# D.3508, D.3507
	movq	-16(%rbp), %rax	# dest, tmp179
	movl	%edx, (%rax)	# D.3507, *dest_10(D)
	.loc 2 94 0
	movq	-16(%rbp), %rax	# dest, tmp180
	addq	$4, %rax	#, D.3509
	movl	swap.3320(%rip), %edx	# swap, D.3508
	movl	%edx, (%rax)	# D.3507, *_49
	.loc 2 95 0
	movq	-16(%rbp), %rax	# dest, tmp181
	addq	$8, %rax	#, D.3509
	movl	swap.3320+8(%rip), %edx	# swap, D.3508
	movl	%edx, (%rax)	# D.3507, *_53
	.loc 2 96 0
	jmp	.L23	#
.L19:
	.loc 2 98 0
	movl	swap.3320(%rip), %eax	# swap, D.3508
	negl	%eax	# D.3508
	movl	%eax, %edx	# D.3508, D.3507
	movq	-16(%rbp), %rax	# dest, tmp182
	movl	%edx, (%rax)	# D.3507, *dest_10(D)
	.loc 2 99 0
	movq	-16(%rbp), %rax	# dest, tmp183
	addq	$4, %rax	#, D.3509
	movl	swap.3320+4(%rip), %edx	# swap, D.3508
	movl	%edx, (%rax)	# D.3507, *_61
	.loc 2 100 0
	movq	-16(%rbp), %rax	# dest, tmp184
	addq	$8, %rax	#, D.3509
	movl	swap.3320+8(%rip), %edx	# swap, D.3508
	negl	%edx	# D.3508
	movl	%edx, (%rax)	# D.3507, *_65
	.loc 2 101 0
	jmp	.L23	#
.L20:
	.loc 2 103 0
	movl	swap.3320+4(%rip), %eax	# swap, D.3508
	movl	%eax, %edx	# D.3508, D.3507
	movq	-16(%rbp), %rax	# dest, tmp185
	movl	%edx, (%rax)	# D.3507, *dest_10(D)
	.loc 2 104 0
	movq	-16(%rbp), %rax	# dest, tmp186
	addq	$4, %rax	#, D.3509
	movl	swap.3320(%rip), %edx	# swap, D.3508
	movl	%edx, (%rax)	# D.3507, *_73
	.loc 2 105 0
	movq	-16(%rbp), %rax	# dest, tmp187
	addq	$8, %rax	#, D.3509
	movl	swap.3320+8(%rip), %edx	# swap, D.3508
	negl	%edx	# D.3508
	movl	%edx, (%rax)	# D.3507, *_77
	.loc 2 106 0
	jmp	.L23	#
.L21:
	.loc 2 108 0
	movl	swap.3320(%rip), %eax	# swap, D.3508
	movl	%eax, %edx	# D.3508, D.3507
	movq	-16(%rbp), %rax	# dest, tmp188
	movl	%edx, (%rax)	# D.3507, *dest_10(D)
	.loc 2 109 0
	movq	-16(%rbp), %rax	# dest, tmp189
	addq	$4, %rax	#, D.3509
	movl	swap.3320+4(%rip), %edx	# swap, D.3508
	negl	%edx	# D.3508
	movl	%edx, (%rax)	# D.3507, *_85
	.loc 2 110 0
	movq	-16(%rbp), %rax	# dest, tmp190
	addq	$8, %rax	#, D.3509
	movl	swap.3320+8(%rip), %edx	# swap, D.3508
	negl	%edx	# D.3508
	movl	%edx, (%rax)	# D.3507, *_90
	.loc 2 111 0
	jmp	.L23	#
.L22:
	.loc 2 113 0
	movl	swap.3320+4(%rip), %eax	# swap, D.3508
	negl	%eax	# D.3508
	movl	%eax, %edx	# D.3508, D.3507
	movq	-16(%rbp), %rax	# dest, tmp191
	movl	%edx, (%rax)	# D.3507, *dest_10(D)
	.loc 2 114 0
	movq	-16(%rbp), %rax	# dest, tmp192
	addq	$4, %rax	#, D.3509
	movl	swap.3320(%rip), %edx	# swap, D.3508
	negl	%edx	# D.3508
	movl	%edx, (%rax)	# D.3507, *_99
	.loc 2 115 0
	movq	-16(%rbp), %rax	# dest, tmp193
	addq	$8, %rax	#, D.3509
	movl	swap.3320+8(%rip), %edx	# swap, D.3508
	negl	%edx	# D.3508
	movl	%edx, (%rax)	# D.3507, *_104
	.loc 2 116 0
	nop
.L23:
	.loc 2 119 0
	movzbl	standardBoardAlignment(%rip), %eax	# standardBoardAlignment, D.3510
	xorl	$1, %eax	#, D.3510
	testb	%al, %al	# D.3510
	je	.L25	#,
	.loc 2 120 0
	movq	-16(%rbp), %rax	# dest, tmp194
	movq	%rax, %rdi	# tmp194,
	call	alignBoard	#
.L25:
	.loc 2 121 0
	nop
	leave
	.cfi_def_cfa 7, 8
	ret
	.cfi_endproc
.LFE11:
	.size	alignSensors, .-alignSensors
	.section	.bss.swap.3320,"aw",@nobits
	.align 8
	.type	swap.3320, @object
	.size	swap.3320, 12
swap.3320:
	.zero	12
	.text
.Letext0:
	.file 3 "/usr/include/stdint.h"
	.file 4 "./src/main/common/maths.h"
	.file 5 "./src/main/config/parameter_group.h"
	.file 6 "./src/main/common/axis.h"
	.file 7 "src/main/sensors/sensors.h"
	.section	.note.GNU-stack,"",@progbits
