	.file	"cleanflight_fc.c"
# GNU C99 (Ubuntu 5.4.1-2ubuntu1~16.04) version 5.4.1 20160904 (x86_64-linux-gnu)
#	compiled by GNU C version 5.4.1 20160904, GMP version 6.1.0, MPFR version 3.1.4, MPC version 1.0.3
# GGC heuristics: --param ggc-min-expand=100 --param ggc-min-heapsize=131072
# options passed:  -fpreprocessed cleanflight_fc.i -mtune=generic
# -march=x86-64 -g -std=gnu99 -ffunction-sections -fdata-sections
# -fverbose-asm -ffat-lto-objects -fstack-protector-strong -Wformat
# -Wformat-security
# options enabled:  -faggressive-loop-optimizations
# -fasynchronous-unwind-tables -fauto-inc-dec -fchkp-check-incomplete-type
# -fchkp-check-read -fchkp-check-write -fchkp-instrument-calls
# -fchkp-narrow-bounds -fchkp-optimize -fchkp-store-bounds
# -fchkp-use-static-bounds -fchkp-use-static-const-bounds
# -fchkp-use-wrappers -fcommon -fdata-sections -fdelete-null-pointer-checks
# -fdwarf2-cfi-asm -fearly-inlining -feliminate-unused-debug-types
# -ffunction-cse -ffunction-sections -fgcse-lm -fgnu-runtime -fgnu-unique
# -fident -finline-atomics -fira-hoist-pressure -fira-share-save-slots
# -fira-share-spill-slots -fivopts -fkeep-static-consts
# -fleading-underscore -flifetime-dse -flto-odr-type-merging -fmath-errno
# -fmerge-debug-strings -fpeephole -fprefetch-loop-arrays
# -freg-struct-return -fsched-critical-path-heuristic
# -fsched-dep-count-heuristic -fsched-group-heuristic -fsched-interblock
# -fsched-last-insn-heuristic -fsched-rank-heuristic -fsched-spec
# -fsched-spec-insn-heuristic -fsched-stalled-insns-dep -fschedule-fusion
# -fsemantic-interposition -fshow-column -fsigned-zeros
# -fsplit-ivs-in-unroller -fstack-protector-strong -fstdarg-opt
# -fstrict-volatile-bitfields -fsync-libcalls -ftrapping-math
# -ftree-coalesce-vars -ftree-cselim -ftree-forwprop -ftree-loop-if-convert
# -ftree-loop-im -ftree-loop-ivcanon -ftree-loop-optimize
# -ftree-parallelize-loops= -ftree-phiprop -ftree-reassoc -ftree-scev-cprop
# -funit-at-a-time -funwind-tables -fverbose-asm -fzero-initialized-in-bss
# -m128bit-long-double -m64 -m80387 -malign-stringops
# -mavx256-split-unaligned-load -mavx256-split-unaligned-store
# -mfancy-math-387 -mfp-ret-in-387 -mfxsr -mglibc -mieee-fp
# -mlong-double-80 -mmmx -mno-sse4 -mpush-args -mred-zone -msse -msse2
# -mtls-direct-seg-refs -mvzeroupper

	.text
.Ltext0:
	.comm	U_ID_0,4,4
	.comm	U_ID_1,4,4
	.comm	U_ID_2,4,4
	.comm	__pg_registry_start,8,8
	.comm	__pg_registry_end,8,8
	.comm	__pg_resetdata_start,8,8
	.comm	__pg_resetdata_end,8,8
	.comm	sensorSelectionConfig_System,3,1
	.comm	sensorAlignmentConfig_System,12,8
	.comm	sensorTrims_System,12,8
	.section	.text.sensorTrims,"ax",@progbits
	.type	sensorTrims, @function
sensorTrims:
.LFB10:
	.file 1 "./src/main/sensors/sensors.h"
	.loc 1 88 0
	.cfi_startproc
	pushq	%rbp	#
	.cfi_def_cfa_offset 16
	.cfi_offset 6, -16
	movq	%rsp, %rbp	#,
	.cfi_def_cfa_register 6
	.loc 1 88 0
	movl	$sensorTrims_System, %eax	#, D.4809
	popq	%rbp	#
	.cfi_def_cfa 7, 8
	ret
	.cfi_endproc
.LFE10:
	.size	sensorTrims, .-sensorTrims
	.section	.text.accelerometerConfig,"ax",@progbits
	.type	accelerometerConfig, @function
accelerometerConfig:
.LFB12:
	.file 2 "./src/main/sensors/acceleration.h"
	.loc 2 67 0
	.cfi_startproc
	pushq	%rbp	#
	.cfi_def_cfa_offset 16
	.cfi_offset 6, -16
	movq	%rsp, %rbp	#,
	.cfi_def_cfa_register 6
	.loc 2 67 0
	movq	accelerometerConfig_ProfileCurrent(%rip), %rax	# accelerometerConfig_ProfileCurrent, D.4810
	popq	%rbp	#
	.cfi_def_cfa 7, 8
	ret
	.cfi_endproc
.LFE12:
	.size	accelerometerConfig, .-accelerometerConfig
	.comm	imuConfig_System,12,8
	.section	.text.imuConfig,"ax",@progbits
	.type	imuConfig, @function
imuConfig:
.LFB13:
	.file 3 "./src/main/flight/imu.h"
	.loc 3 55 0
	.cfi_startproc
	pushq	%rbp	#
	.cfi_def_cfa_offset 16
	.cfi_offset 6, -16
	movq	%rsp, %rbp	#,
	.cfi_def_cfa_register 6
	.loc 3 55 0
	movl	$imuConfig_System, %eax	#, D.4811
	popq	%rbp	#
	.cfi_def_cfa 7, 8
	ret
	.cfi_endproc
.LFE13:
	.size	imuConfig, .-imuConfig
	.globl	cycleTime
	.section	.bss.cycleTime,"aw",@nobits
	.align 2
	.type	cycleTime, @object
	.size	cycleTime, 2
cycleTime:
	.zero	2
	.comm	dT,4,4
	.comm	magHold,2,2
	.comm	headFreeModeHold,2,2
	.globl	motorControlEnable
	.section	.bss.motorControlEnable,"aw",@nobits
	.type	motorControlEnable, @object
	.size	motorControlEnable, 1
motorControlEnable:
	.zero	1
	.comm	telemTemperature1,2,2
	.section	.bss.disarmAt,"aw",@nobits
	.align 4
	.type	disarmAt, @object
	.size	disarmAt, 4
disarmAt:
	.zero	4
	.section	.bss.isRXDataNew,"aw",@nobits
	.type	isRXDataNew, @object
	.size	isRXDataNew, 1
isRXDataNew:
	.zero	1
	.globl	gyro_initialized
	.section	.bss.gyro_initialized,"aw",@nobits
	.type	gyro_initialized, @object
	.size	gyro_initialized, 1
gyro_initialized:
	.zero	1
	.section	.bss.filteredCycleTimeState,"aw",@nobits
	.align 8
	.type	filteredCycleTimeState, @object
	.size	filteredCycleTimeState, 12
filteredCycleTimeState:
	.zero	12
	.comm	filteredCycleTime,2,2
	.globl	i
	.section	.bss.i,"aw",@nobits
	.align 4
	.type	i, @object
	.size	i, 4
i:
	.zero	4
	.globl	AccInflightCalibrationArmed
	.section	.bss.AccInflightCalibrationArmed,"aw",@nobits
	.type	AccInflightCalibrationArmed, @object
	.size	AccInflightCalibrationArmed, 1
AccInflightCalibrationArmed:
	.zero	1
	.globl	AccInflightCalibrationMeasurementDone
	.section	.bss.AccInflightCalibrationMeasurementDone,"aw",@nobits
	.type	AccInflightCalibrationMeasurementDone, @object
	.size	AccInflightCalibrationMeasurementDone, 1
AccInflightCalibrationMeasurementDone:
	.zero	1
	.globl	AccInflightCalibrationSavetoEEProm
	.section	.bss.AccInflightCalibrationSavetoEEProm,"aw",@nobits
	.type	AccInflightCalibrationSavetoEEProm, @object
	.size	AccInflightCalibrationSavetoEEProm, 1
AccInflightCalibrationSavetoEEProm:
	.zero	1
	.globl	AccInflightCalibrationActive
	.section	.bss.AccInflightCalibrationActive,"aw",@nobits
	.type	AccInflightCalibrationActive, @object
	.size	AccInflightCalibrationActive, 1
AccInflightCalibrationActive:
	.zero	1
	.globl	InflightcalibratingA
	.section	.bss.InflightcalibratingA,"aw",@nobits
	.align 2
	.type	InflightcalibratingA, @object
	.size	InflightcalibratingA, 2
InflightcalibratingA:
	.zero	2
	.section	.text.taskHandleSerial,"ax",@progbits
	.globl	taskHandleSerial
	.type	taskHandleSerial, @function
taskHandleSerial:
.LFB15:
	.file 4 "src/main/fc/cleanflight_fc.c"
	.loc 4 152 0
	.cfi_startproc
	pushq	%rbp	#
	.cfi_def_cfa_offset 16
	.cfi_offset 6, -16
	movq	%rsp, %rbp	#,
	.cfi_def_cfa_register 6
	.loc 4 162 0
	movl	$0, %eax	#,
	call	mspSerialProcess	#
	.loc 4 163 0
	nop
	popq	%rbp	#
	.cfi_def_cfa 7, 8
	ret
	.cfi_endproc
.LFE15:
	.size	taskHandleSerial, .-taskHandleSerial
	.section	.text.taskUpdateCompass,"ax",@progbits
	.globl	taskUpdateCompass
	.type	taskUpdateCompass, @function
taskUpdateCompass:
.LFB16:
	.loc 4 168 0
	.cfi_startproc
	pushq	%rbp	#
	.cfi_def_cfa_offset 16
	.cfi_offset 6, -16
	movq	%rsp, %rbp	#,
	.cfi_def_cfa_register 6
	.loc 4 169 0
	call	sensorTrims	#
	addq	$6, %rax	#, D.4813
	movq	%rax, %rdi	# D.4813,
	call	updateCompass	#
	.loc 4 170 0
	nop
	popq	%rbp	#
	.cfi_def_cfa 7, 8
	ret
	.cfi_endproc
.LFE16:
	.size	taskUpdateCompass, .-taskUpdateCompass
	.section	.text.taskUpdateAccelerometer,"ax",@progbits
	.globl	taskUpdateAccelerometer
	.type	taskUpdateAccelerometer, @function
taskUpdateAccelerometer:
.LFB17:
	.loc 4 174 0
	.cfi_startproc
	pushq	%rbp	#
	.cfi_def_cfa_offset 16
	.cfi_offset 6, -16
	movq	%rsp, %rbp	#,
	.cfi_def_cfa_register 6
	.loc 4 175 0
	call	accelerometerConfig	#
	movq	%rax, %rdi	# D.4815,
	call	imuUpdateAccelerometer	#
	.loc 4 176 0
	nop
	popq	%rbp	#
	.cfi_def_cfa 7, 8
	ret
	.cfi_endproc
.LFE17:
	.size	taskUpdateAccelerometer, .-taskUpdateAccelerometer
	.section	.text.taskMainPidLoopChecker,"ax",@progbits
	.globl	taskMainPidLoopChecker
	.type	taskMainPidLoopChecker, @function
taskMainPidLoopChecker:
.LFB18:
	.loc 4 179 0
	.cfi_startproc
	pushq	%rbp	#
	.cfi_def_cfa_offset 16
	.cfi_offset 6, -16
	movq	%rsp, %rbp	#,
	.cfi_def_cfa_register 6
	pushq	%rbx	#
	subq	$24, %rsp	#,
	.cfi_offset 3, -24
	.loc 4 182 0
	movzbl	gyro_initialized(%rip), %eax	# gyro_initialized, D.4816
	xorl	$1, %eax	#, D.4816
	testb	%al, %al	# D.4816
	je	.L11	#,
	.loc 4 184 0
	call	imuConfig	#
	movb	$1, 2(%rax)	#, _8->gyroSync
	.loc 4 185 0
	movb	$1, gyro_initialized(%rip)	#, gyro_initialized
.L11:
	.loc 4 187 0
	movl	$-1, %edi	#,
	call	getTaskDeltaTime	#
	movl	%eax, -20(%rbp)	# tmp102, currentDeltaTime
	.loc 4 189 0
	call	imuConfig	#
	movzbl	2(%rax), %eax	# _14->gyroSync, D.4818
	testb	%al, %al	# D.4818
	je	.L14	#,
.L13:
	.loc 4 191 0
	call	gyroSyncCheckUpdate	#
	testb	%al, %al	# D.4816
	jne	.L14	#,
	.loc 4 191 0 is_stmt 0 discriminator 1
	movl	-20(%rbp), %ebx	# currentDeltaTime, D.4819
	call	micros	#
	movl	currentTime(%rip), %edx	# currentTime, D.4820
	movl	%edx, %edx	# D.4820, D.4819
	subq	%rdx, %rax	# D.4819, D.4819
	leaq	(%rbx,%rax), %rdx	#, D.4819
	movl	targetLooptime(%rip), %eax	# targetLooptime, D.4820
	addl	$100, %eax	#, D.4820
	movl	%eax, %eax	# D.4820, D.4819
	cmpq	%rax, %rdx	# D.4819, D.4819
	jnb	.L14	#,
	.loc 4 194 0 is_stmt 1
	jmp	.L13	#
.L14:
	.loc 4 198 0
	nop
	addq	$24, %rsp	#,
	popq	%rbx	#
	popq	%rbp	#
	.cfi_def_cfa 7, 8
	ret
	.cfi_endproc
.LFE18:
	.size	taskMainPidLoopChecker, .-taskMainPidLoopChecker
	.section	.text.taskMainPidLoop,"ax",@progbits
	.globl	taskMainPidLoop
	.type	taskMainPidLoop, @function
taskMainPidLoop:
.LFB19:
	.loc 4 203 0
	.cfi_startproc
	pushq	%rbp	#
	.cfi_def_cfa_offset 16
	.cfi_offset 6, -16
	movq	%rsp, %rbp	#,
	.cfi_def_cfa_register 6
	.loc 4 204 0
	movl	$-1, %edi	#,
	call	getTaskDeltaTime	#
	movw	%ax, cycleTime(%rip)	# D.4822, cycleTime
	.loc 4 205 0
	movzwl	cycleTime(%rip), %eax	# cycleTime, D.4822
	movzwl	%ax, %eax	# D.4822, tmp97
	pxor	%xmm0, %xmm0	# D.4823
	cvtsi2ss	%eax, %xmm0	# tmp97, D.4823
	movss	.LC0(%rip), %xmm1	#, tmp98
	mulss	%xmm1, %xmm0	# tmp98, D.4823
	movss	%xmm0, dT(%rip)	# D.4823, dT
	.loc 4 208 0
	movss	dT(%rip), %xmm1	# dT, D.4823
	movzwl	cycleTime(%rip), %eax	# cycleTime, D.4822
	movzwl	%ax, %eax	# D.4822, tmp99
	pxor	%xmm0, %xmm0	# D.4823
	cvtsi2ss	%eax, %xmm0	# tmp99, D.4823
	movl	$1, %esi	#,
	movl	$filteredCycleTimeState, %edi	#,
	call	pt1FilterApply4	#
	cvttss2si	%xmm0, %eax	# D.4823, tmp100
	movw	%ax, filteredCycleTime(%rip)	# D.4822, filteredCycleTime
	.loc 4 210 0
	call	imuUpdateGyroAndAttitude	#
	.loc 4 263 0
	nop
	popq	%rbp	#
	.cfi_def_cfa 7, 8
	ret
	.cfi_endproc
.LFE19:
	.size	taskMainPidLoop, .-taskMainPidLoop
	.section	.rodata
	.align 4
.LC0:
	.long	897988541
	.text
.Letext0:
	.file 5 "/usr/include/x86_64-linux-gnu/sys/types.h"
	.file 6 "/usr/include/stdint.h"
	.file 7 "./src/main/common/filter.h"
	.file 8 "./src/main/config/parameter_group.h"
	.file 9 "./src/main/common/color.h"
	.file 10 "./src/main/sensors/compass.h"
	.file 11 "./src/main/target/edison/target.h"
	.file 12 "./src/main/drivers/gyro_sync.h"
	.section	.note.GNU-stack,"",@progbits
