	.file	"compass.c"
# GNU C99 (Ubuntu 5.4.1-2ubuntu1~16.04) version 5.4.1 20160904 (x86_64-linux-gnu)
#	compiled by GNU C version 5.4.1 20160904, GMP version 6.1.0, MPFR version 3.1.4, MPC version 1.0.3
# GGC heuristics: --param ggc-min-expand=100 --param ggc-min-heapsize=131072
# options passed:  -fpreprocessed compass.i -mtune=generic -march=x86-64 -g
# -std=gnu99 -ffunction-sections -fdata-sections -fverbose-asm
# -ffat-lto-objects -fstack-protector-strong -Wformat -Wformat-security
# options enabled:  -faggressive-loop-optimizations
# -fasynchronous-unwind-tables -fauto-inc-dec -fchkp-check-incomplete-type
# -fchkp-check-read -fchkp-check-write -fchkp-instrument-calls
# -fchkp-narrow-bounds -fchkp-optimize -fchkp-store-bounds
# -fchkp-use-static-bounds -fchkp-use-static-const-bounds
# -fchkp-use-wrappers -fcommon -fdata-sections -fdelete-null-pointer-checks
# -fdwarf2-cfi-asm -fearly-inlining -feliminate-unused-debug-types
# -ffunction-cse -ffunction-sections -fgcse-lm -fgnu-runtime -fgnu-unique
# -fident -finline-atomics -fira-hoist-pressure -fira-share-save-slots
# -fira-share-spill-slots -fivopts -fkeep-static-consts
# -fleading-underscore -flifetime-dse -flto-odr-type-merging -fmath-errno
# -fmerge-debug-strings -fpeephole -fprefetch-loop-arrays
# -freg-struct-return -fsched-critical-path-heuristic
# -fsched-dep-count-heuristic -fsched-group-heuristic -fsched-interblock
# -fsched-last-insn-heuristic -fsched-rank-heuristic -fsched-spec
# -fsched-spec-insn-heuristic -fsched-stalled-insns-dep -fschedule-fusion
# -fsemantic-interposition -fshow-column -fsigned-zeros
# -fsplit-ivs-in-unroller -fstack-protector-strong -fstdarg-opt
# -fstrict-volatile-bitfields -fsync-libcalls -ftrapping-math
# -ftree-coalesce-vars -ftree-cselim -ftree-forwprop -ftree-loop-if-convert
# -ftree-loop-im -ftree-loop-ivcanon -ftree-loop-optimize
# -ftree-parallelize-loops= -ftree-phiprop -ftree-reassoc -ftree-scev-cprop
# -funit-at-a-time -funwind-tables -fverbose-asm -fzero-initialized-in-bss
# -m128bit-long-double -m64 -m80387 -malign-stringops
# -mavx256-split-unaligned-load -mavx256-split-unaligned-store
# -mfancy-math-387 -mfp-ret-in-387 -mfxsr -mglibc -mieee-fp
# -mlong-double-80 -mmmx -mno-sse4 -mpush-args -mred-zone -msse -msse2
# -mtls-direct-seg-refs -mvzeroupper

	.text
.Ltext0:
	.comm	U_ID_0,4,4
	.comm	U_ID_1,4,4
	.comm	U_ID_2,4,4
	.comm	__pg_registry_start,8,8
	.comm	__pg_registry_end,8,8
	.comm	__pg_resetdata_start,8,8
	.comm	__pg_resetdata_end,8,8
	.comm	profileSelection_System,1,1
	.comm	boardAlignment_System,6,1
	.comm	sensorSelectionConfig_System,3,1
	.comm	sensorAlignmentConfig_System,12,8
	.comm	sensorTrims_System,12,8
	.section	.text.compassConfig,"ax",@progbits
	.type	compassConfig, @function
compassConfig:
.LFB15:
	.file 1 "./src/main/sensors/compass.h"
	.loc 1 37 0
	.cfi_startproc
	pushq	%rbp	#
	.cfi_def_cfa_offset 16
	.cfi_offset 6, -16
	movq	%rsp, %rbp	#,
	.cfi_def_cfa_register 6
	.loc 1 37 0
	movq	compassConfig_ProfileCurrent(%rip), %rax	# compassConfig_ProfileCurrent, D.3703
	popq	%rbp	#
	.cfi_def_cfa 7, 8
	ret
	.cfi_endproc
.LFE15:
	.size	compassConfig, .-compassConfig
	.section	.bss.compassConfig_Storage,"aw",@nobits
	.align 2
	.type	compassConfig_Storage, @object
	.size	compassConfig_Storage, 6
compassConfig_Storage:
	.zero	6
	.comm	compassConfig_ProfileCurrent,8,8
	.globl	compassConfig_Registry
	.section	.pg_registry,"a",@progbits
	.align 8
	.type	compassConfig_Registry, @object
	.size	compassConfig_Registry, 32
compassConfig_Registry:
# pgn:
	.value	40
# size:
	.value	-32766
# address:
	.zero	4
	.quad	compassConfig_Storage
# ptr:
	.quad	compassConfig_ProfileCurrent
# reset:
# ptr:
	.quad	pgResetTemplate_compassConfig
	.globl	pgResetTemplate_compassConfig
	.section	.pg_resetdata,"a",@progbits
	.align 2
	.type	pgResetTemplate_compassConfig, @object
	.size	pgResetTemplate_compassConfig, 2
pgResetTemplate_compassConfig:
	.zero	2
	.globl	magneticDeclination
	.section	.bss.magneticDeclination,"aw",@nobits
	.align 4
	.type	magneticDeclination, @object
	.size	magneticDeclination, 4
magneticDeclination:
	.zero	4
	.comm	magADCRaw,6,2
	.comm	magADC,12,8
	.globl	magAlign
	.section	.bss.magAlign,"aw",@nobits
	.align 4
	.type	magAlign, @object
	.size	magAlign, 4
magAlign:
	.zero	4
	.section	.data.magInit,"aw",@progbits
	.type	magInit, @object
	.size	magInit, 1
magInit:
	.byte	1
	.section	.rodata
.LC0:
	.string	"LED1_ON"
.LC1:
	.string	"LED1_OFF"
	.section	.text.compassInit,"ax",@progbits
	.globl	compassInit
	.type	compassInit, @function
compassInit:
.LFB16:
	.file 2 "src/main/sensors/compass.c"
	.loc 2 71 0
	.cfi_startproc
	pushq	%rbp	#
	.cfi_def_cfa_offset 16
	.cfi_offset 6, -16
	movq	%rsp, %rbp	#,
	.cfi_def_cfa_register 6
	subq	$16, %rsp	#,
	.loc 2 74 0
	movl	$.LC0, %edi	#,
	call	puts	#
	.loc 2 75 0
	movq	mag(%rip), %rax	# mag.init, D.3704
	call	*%rax	# D.3704
	movb	%al, -1(%rbp)	# tmp90, ret
	.loc 2 77 0
	movl	$.LC1, %edi	#,
	call	puts	#
	.loc 2 78 0
	cmpb	$0, -1(%rbp)	#, ret
	je	.L4	#,
	.loc 2 79 0
	movb	$1, magInit(%rip)	#, magInit
.L4:
	.loc 2 81 0
	movzbl	-1(%rbp), %eax	# ret, D.3705
	.loc 2 82 0
	leave
	.cfi_def_cfa 7, 8
	ret
	.cfi_endproc
.LFE16:
	.size	compassInit, .-compassInit
	.section	.rodata
.LC2:
	.string	"LED0_TOGGLE"
	.section	.text.updateCompass,"ax",@progbits
	.globl	updateCompass
	.type	updateCompass, @function
updateCompass:
.LFB17:
	.loc 2 85 0
	.cfi_startproc
	pushq	%rbp	#
	.cfi_def_cfa_offset 16
	.cfi_offset 6, -16
	movq	%rsp, %rbp	#,
	.cfi_def_cfa_register 6
	subq	$32, %rsp	#,
	movq	%rdi, -24(%rbp)	# magZero, magZero
	.loc 2 90 0
	movq	mag+8(%rip), %rax	# mag.read, D.3708
	movl	$magADCRaw, %edi	#,
	call	*%rax	# D.3708
	xorl	$1, %eax	#, D.3709
	testb	%al, %al	# D.3709
	jne	.L22	#,
.LBB2:
	.loc 2 93 0
	movl	$0, -16(%rbp)	#, axis
	jmp	.L9	#
.L10:
	.loc 2 94 0 discriminator 3
	movl	-16(%rbp), %eax	# axis, tmp140
	cltq
	movzwl	magADCRaw(%rax,%rax), %eax	# magADCRaw, D.3710
	movswl	%ax, %edx	# D.3710, D.3711
	movl	-16(%rbp), %eax	# axis, tmp142
	cltq
	movl	%edx, magADC(,%rax,4)	# D.3711, magADC
	.loc 2 93 0 discriminator 3
	addl	$1, -16(%rbp)	#, axis
.L9:
	.loc 2 93 0 is_stmt 0 discriminator 1
	cmpl	$2, -16(%rbp)	#, axis
	jle	.L10	#,
.LBE2:
	.loc 2 96 0 is_stmt 1
	movl	magAlign(%rip), %eax	# magAlign, D.3712
	movzbl	%al, %eax	# D.3713, D.3711
	movl	%eax, %edx	# D.3711,
	movl	$magADC, %esi	#,
	movl	$magADC, %edi	#,
	call	alignSensors	#
	.loc 2 98 0
	movzbl	stateFlags(%rip), %eax	# stateFlags, D.3713
	movzbl	%al, %eax	# D.3713, D.3711
	andl	$4, %eax	#, D.3711
	testl	%eax, %eax	# D.3711
	je	.L11	#,
	.loc 2 99 0
	movl	currentTime(%rip), %eax	# currentTime, D.3714
	movl	%eax, tCal.3586(%rip)	# D.3714, tCal
.LBB3:
	.loc 2 100 0
	movl	$0, -12(%rbp)	#, axis
	jmp	.L12	#
.L13:
	.loc 2 101 0 discriminator 3
	movq	-24(%rbp), %rax	# magZero, tmp143
	movl	-12(%rbp), %edx	# axis, tmp145
	movslq	%edx, %rdx	# tmp145, tmp144
	movw	$0, (%rax,%rdx,2)	#, magZero_34(D)->raw
	.loc 2 102 0 discriminator 3
	movl	-12(%rbp), %eax	# axis, tmp147
	cltq
	movl	magADC(,%rax,4), %eax	# magADC, D.3711
	movl	%eax, %edx	# D.3711, D.3710
	movl	-12(%rbp), %eax	# axis, tmp149
	cltq
	movw	%dx, magZeroTempMin.3587(%rax,%rax)	# D.3710, magZeroTempMin.raw
	.loc 2 103 0 discriminator 3
	movl	-12(%rbp), %eax	# axis, tmp151
	cltq
	movl	magADC(,%rax,4), %eax	# magADC, D.3711
	movl	%eax, %edx	# D.3711, D.3710
	movl	-12(%rbp), %eax	# axis, tmp153
	cltq
	movw	%dx, magZeroTempMax.3588(%rax,%rax)	# D.3710, magZeroTempMax.raw
	.loc 2 100 0 discriminator 3
	addl	$1, -12(%rbp)	#, axis
.L12:
	.loc 2 100 0 is_stmt 0 discriminator 1
	cmpl	$2, -12(%rbp)	#, axis
	jle	.L13	#,
.LBE3:
	.loc 2 105 0 is_stmt 1
	movzbl	stateFlags(%rip), %eax	# stateFlags, D.3713
	andl	$-5, %eax	#, D.3713
	movb	%al, stateFlags(%rip)	# D.3713, stateFlags
.L11:
	.loc 2 108 0
	movzbl	magInit(%rip), %eax	# magInit, D.3713
	testb	%al, %al	# D.3713
	je	.L14	#,
	.loc 2 109 0
	movl	magADC(%rip), %edx	# magADC, D.3711
	movq	-24(%rbp), %rax	# magZero, tmp154
	movzwl	(%rax), %eax	# magZero_34(D)->raw, D.3710
	cwtl
	subl	%eax, %edx	# D.3711, D.3711
	movl	%edx, %eax	# D.3711, D.3711
	movl	%eax, magADC(%rip)	# D.3711, magADC
	.loc 2 110 0
	movl	magADC+4(%rip), %edx	# magADC, D.3711
	movq	-24(%rbp), %rax	# magZero, tmp155
	movzwl	2(%rax), %eax	# magZero_34(D)->raw, D.3710
	cwtl
	subl	%eax, %edx	# D.3711, D.3711
	movl	%edx, %eax	# D.3711, D.3711
	movl	%eax, magADC+4(%rip)	# D.3711, magADC
	.loc 2 111 0
	movl	magADC+8(%rip), %edx	# magADC, D.3711
	movq	-24(%rbp), %rax	# magZero, tmp156
	movzwl	4(%rax), %eax	# magZero_34(D)->raw, D.3710
	cwtl
	subl	%eax, %edx	# D.3711, D.3711
	movl	%edx, %eax	# D.3711, D.3711
	movl	%eax, magADC+8(%rip)	# D.3711, magADC
.L14:
	.loc 2 114 0
	movl	tCal.3586(%rip), %eax	# tCal, D.3714
	testl	%eax, %eax	# D.3714
	je	.L6	#,
	.loc 2 115 0
	movl	currentTime(%rip), %edx	# currentTime, D.3714
	movl	tCal.3586(%rip), %eax	# tCal, D.3714
	subl	%eax, %edx	# D.3714, D.3714
	movl	%edx, %eax	# D.3714, D.3714
	cmpl	$29999999, %eax	#, D.3714
	ja	.L15	#,
	.loc 2 117 0
	movl	$.LC2, %edi	#,
	call	puts	#
.LBB4:
	.loc 2 118 0
	movl	$0, -8(%rbp)	#, axis
	jmp	.L16	#
.L19:
	.loc 2 119 0
	movl	-8(%rbp), %eax	# axis, tmp158
	cltq
	movl	magADC(,%rax,4), %edx	# magADC, D.3711
	movl	-8(%rbp), %eax	# axis, tmp160
	cltq
	movzwl	magZeroTempMin.3587(%rax,%rax), %eax	# magZeroTempMin.raw, D.3710
	cwtl
	cmpl	%eax, %edx	# D.3711, D.3711
	jge	.L17	#,
	.loc 2 120 0
	movl	-8(%rbp), %eax	# axis, tmp162
	cltq
	movl	magADC(,%rax,4), %eax	# magADC, D.3711
	movl	%eax, %edx	# D.3711, D.3710
	movl	-8(%rbp), %eax	# axis, tmp164
	cltq
	movw	%dx, magZeroTempMin.3587(%rax,%rax)	# D.3710, magZeroTempMin.raw
.L17:
	.loc 2 121 0
	movl	-8(%rbp), %eax	# axis, tmp166
	cltq
	movl	magADC(,%rax,4), %edx	# magADC, D.3711
	movl	-8(%rbp), %eax	# axis, tmp168
	cltq
	movzwl	magZeroTempMax.3588(%rax,%rax), %eax	# magZeroTempMax.raw, D.3710
	cwtl
	cmpl	%eax, %edx	# D.3711, D.3711
	jle	.L18	#,
	.loc 2 122 0
	movl	-8(%rbp), %eax	# axis, tmp170
	cltq
	movl	magADC(,%rax,4), %eax	# magADC, D.3711
	movl	%eax, %edx	# D.3711, D.3710
	movl	-8(%rbp), %eax	# axis, tmp172
	cltq
	movw	%dx, magZeroTempMax.3588(%rax,%rax)	# D.3710, magZeroTempMax.raw
.L18:
	.loc 2 118 0 discriminator 2
	addl	$1, -8(%rbp)	#, axis
.L16:
	.loc 2 118 0 is_stmt 0 discriminator 1
	cmpl	$2, -8(%rbp)	#, axis
	jle	.L19	#,
	jmp	.L6	#
.L15:
.LBE4:
	.loc 2 125 0 is_stmt 1
	movl	$0, tCal.3586(%rip)	#, tCal
.LBB5:
	.loc 2 126 0
	movl	$0, -4(%rbp)	#, axis
	jmp	.L20	#
.L21:
	.loc 2 127 0 discriminator 3
	movl	-4(%rbp), %eax	# axis, tmp174
	cltq
	movzwl	magZeroTempMin.3587(%rax,%rax), %eax	# magZeroTempMin.raw, D.3710
	movswl	%ax, %edx	# D.3710, D.3711
	movl	-4(%rbp), %eax	# axis, tmp176
	cltq
	movzwl	magZeroTempMax.3588(%rax,%rax), %eax	# magZeroTempMax.raw, D.3710
	cwtl
	addl	%edx, %eax	# D.3711, D.3711
	movl	%eax, %edx	# D.3711, tmp177
	shrl	$31, %edx	#, tmp177
	addl	%edx, %eax	# tmp177, tmp178
	sarl	%eax	# tmp179
	movl	%eax, %ecx	# D.3711, D.3710
	movq	-24(%rbp), %rax	# magZero, tmp180
	movl	-4(%rbp), %edx	# axis, tmp182
	movslq	%edx, %rdx	# tmp182, tmp181
	movw	%cx, (%rax,%rdx,2)	# D.3710, magZero_34(D)->raw
	.loc 2 126 0 discriminator 3
	addl	$1, -4(%rbp)	#, axis
.L20:
	.loc 2 126 0 is_stmt 0 discriminator 1
	cmpl	$2, -4(%rbp)	#, axis
	jle	.L21	#,
	jmp	.L6	#
.L22:
.LBE5:
	.loc 2 91 0 is_stmt 1
	nop
.L6:
	.loc 2 133 0
	leave
	.cfi_def_cfa 7, 8
	ret
	.cfi_endproc
.LFE17:
	.size	updateCompass, .-updateCompass
	.section	.text.recalculateMagneticDeclination,"ax",@progbits
	.globl	recalculateMagneticDeclination
	.type	recalculateMagneticDeclination, @function
recalculateMagneticDeclination:
.LFB18:
	.loc 2 137 0
	.cfi_startproc
	pushq	%rbp	#
	.cfi_def_cfa_offset 16
	.cfi_offset 6, -16
	movq	%rsp, %rbp	#,
	.cfi_def_cfa_register 6
	subq	$16, %rsp	#,
	.loc 2 140 0
	movl	$8, %edi	#,
	call	sensors	#
	testb	%al, %al	# D.3716
	je	.L24	#,
	.loc 2 142 0
	call	compassConfig	#
	movzwl	(%rax), %eax	# _6->mag_declination, D.3718
	movswl	%ax, %edx	# D.3718, tmp97
	imull	$5243, %edx, %edx	#, tmp97, tmp98
	shrl	$16, %edx	#, tmp99
	sarw	$3, %dx	#, tmp100
	sarw	$15, %ax	#, tmp101
	subl	%eax, %edx	# tmp101, tmp102
	movl	%edx, %eax	# tmp102, tmp102
	movw	%ax, -4(%rbp)	# tmp102, deg
	.loc 2 143 0
	call	compassConfig	#
	movzwl	(%rax), %edx	# _10->mag_declination, D.3718
	movswl	%dx, %eax	# D.3718, tmp103
	imull	$5243, %eax, %eax	#, tmp103, tmp104
	shrl	$16, %eax	#, tmp105
	movl	%eax, %ecx	# tmp105, tmp106
	sarw	$3, %cx	#, tmp106
	movl	%edx, %eax	# D.3718, tmp107
	sarw	$15, %ax	#, tmp107
	subl	%eax, %ecx	# tmp107, tmp108
	movl	%ecx, %eax	# tmp108, tmp108
	movw	%ax, -2(%rbp)	# tmp108, min
	movzwl	-2(%rbp), %ecx	# min, tmp109
	movl	%ecx, %eax	# tmp109, tmp110
	sall	$2, %eax	#, tmp110
	addl	%ecx, %eax	# tmp109, tmp110
	leal	0(,%rax,4), %ecx	#, tmp111
	addl	%ecx, %eax	# tmp111, tmp110
	sall	$2, %eax	#, tmp112
	subl	%eax, %edx	# tmp110, tmp113
	movl	%edx, %eax	# tmp113, tmp113
	movw	%ax, -2(%rbp)	# tmp113, min
	.loc 2 145 0
	movswl	-4(%rbp), %eax	# deg, tmp114
	pxor	%xmm1, %xmm1	# D.3719
	cvtsi2ss	%eax, %xmm1	# tmp114, D.3719
	movswl	-2(%rbp), %eax	# min, tmp115
	pxor	%xmm0, %xmm0	# D.3719
	cvtsi2ss	%eax, %xmm0	# tmp115, D.3719
	movss	.LC3(%rip), %xmm2	#, tmp116
	mulss	%xmm2, %xmm0	# tmp116, D.3719
	addss	%xmm1, %xmm0	# D.3719, D.3719
	movss	.LC4(%rip), %xmm1	#, tmp117
	mulss	%xmm1, %xmm0	# tmp117, D.3719
	movss	%xmm0, magneticDeclination(%rip)	# D.3719, magneticDeclination
	.loc 2 150 0
	jmp	.L26	#
.L24:
	.loc 2 147 0
	pxor	%xmm0, %xmm0	# tmp118
	movss	%xmm0, magneticDeclination(%rip)	# tmp118, magneticDeclination
.L26:
	.loc 2 150 0
	nop
	leave
	.cfi_def_cfa 7, 8
	ret
	.cfi_endproc
.LFE18:
	.size	recalculateMagneticDeclination, .-recalculateMagneticDeclination
	.section	.bss.tCal.3586,"aw",@nobits
	.align 4
	.type	tCal.3586, @object
	.size	tCal.3586, 4
tCal.3586:
	.zero	4
	.section	.bss.magZeroTempMin.3587,"aw",@nobits
	.align 2
	.type	magZeroTempMin.3587, @object
	.size	magZeroTempMin.3587, 6
magZeroTempMin.3587:
	.zero	6
	.section	.bss.magZeroTempMax.3588,"aw",@nobits
	.align 2
	.type	magZeroTempMax.3588, @object
	.size	magZeroTempMax.3588, 6
magZeroTempMax.3588:
	.zero	6
	.section	.rodata
	.align 4
.LC3:
	.long	1015580809
	.align 4
.LC4:
	.long	1092616192
	.text
.Letext0:
	.file 3 "/usr/include/stdint.h"
	.file 4 "./src/main/config/parameter_group.h"
	.file 5 "./src/main/common/axis.h"
	.file 6 "./src/main/config/profile.h"
	.file 7 "./src/main/drivers/sensor.h"
	.file 8 "./src/main/drivers/drivers_compass.h"
	.file 9 "./src/main/sensors/boardalignment.h"
	.file 10 "./src/main/fc/runtime_config.h"
	.file 11 "./src/main/sensors/sensors.h"
	.file 12 "./src/main/target/edison/target.h"
	.section	.note.GNU-stack,"",@progbits
