	.file	"gyro_sync.c"
# GNU C99 (Ubuntu 5.4.1-2ubuntu1~16.04) version 5.4.1 20160904 (x86_64-linux-gnu)
#	compiled by GNU C version 5.4.1 20160904, GMP version 6.1.0, MPFR version 3.1.4, MPC version 1.0.3
# GGC heuristics: --param ggc-min-expand=100 --param ggc-min-heapsize=131072
# options passed:  -fpreprocessed gyro_sync.i -mtune=generic -march=x86-64
# -g -std=gnu99 -ffunction-sections -fdata-sections -fverbose-asm
# -ffat-lto-objects -fstack-protector-strong -Wformat -Wformat-security
# options enabled:  -faggressive-loop-optimizations
# -fasynchronous-unwind-tables -fauto-inc-dec -fchkp-check-incomplete-type
# -fchkp-check-read -fchkp-check-write -fchkp-instrument-calls
# -fchkp-narrow-bounds -fchkp-optimize -fchkp-store-bounds
# -fchkp-use-static-bounds -fchkp-use-static-const-bounds
# -fchkp-use-wrappers -fcommon -fdata-sections -fdelete-null-pointer-checks
# -fdwarf2-cfi-asm -fearly-inlining -feliminate-unused-debug-types
# -ffunction-cse -ffunction-sections -fgcse-lm -fgnu-runtime -fgnu-unique
# -fident -finline-atomics -fira-hoist-pressure -fira-share-save-slots
# -fira-share-spill-slots -fivopts -fkeep-static-consts
# -fleading-underscore -flifetime-dse -flto-odr-type-merging -fmath-errno
# -fmerge-debug-strings -fpeephole -fprefetch-loop-arrays
# -freg-struct-return -fsched-critical-path-heuristic
# -fsched-dep-count-heuristic -fsched-group-heuristic -fsched-interblock
# -fsched-last-insn-heuristic -fsched-rank-heuristic -fsched-spec
# -fsched-spec-insn-heuristic -fsched-stalled-insns-dep -fschedule-fusion
# -fsemantic-interposition -fshow-column -fsigned-zeros
# -fsplit-ivs-in-unroller -fstack-protector-strong -fstdarg-opt
# -fstrict-volatile-bitfields -fsync-libcalls -ftrapping-math
# -ftree-coalesce-vars -ftree-cselim -ftree-forwprop -ftree-loop-if-convert
# -ftree-loop-im -ftree-loop-ivcanon -ftree-loop-optimize
# -ftree-parallelize-loops= -ftree-phiprop -ftree-reassoc -ftree-scev-cprop
# -funit-at-a-time -funwind-tables -fverbose-asm -fzero-initialized-in-bss
# -m128bit-long-double -m64 -m80387 -malign-stringops
# -mavx256-split-unaligned-load -mavx256-split-unaligned-store
# -mfancy-math-387 -mfp-ret-in-387 -mfxsr -mglibc -mieee-fp
# -mlong-double-80 -mmmx -mno-sse4 -mpush-args -mred-zone -msse -msse2
# -mtls-direct-seg-refs -mvzeroupper

	.text
.Ltext0:
	.comm	U_ID_0,4,4
	.comm	U_ID_1,4,4
	.comm	U_ID_2,4,4
	.comm	targetLooptime,4,4
	.section	.bss.mpuDividerDrops,"aw",@nobits
	.type	mpuDividerDrops, @object
	.size	mpuDividerDrops, 1
mpuDividerDrops:
	.zero	1
	.section	.text.gyroSyncCheckUpdate,"ax",@progbits
	.globl	gyroSyncCheckUpdate
	.type	gyroSyncCheckUpdate, @function
gyroSyncCheckUpdate:
.LFB2:
	.file 1 "src/main/drivers/gyro_sync.c"
	.loc 1 37 0
	.cfi_startproc
	pushq	%rbp	#
	.cfi_def_cfa_offset 16
	.cfi_offset 6, -16
	movq	%rsp, %rbp	#,
	.cfi_def_cfa_register 6
	.loc 1 38 0
	movq	gyro+24(%rip), %rax	# gyro.isDataReady, D.2596
	testq	%rax, %rax	# D.2596
	je	.L2	#,
	.loc 1 38 0 is_stmt 0 discriminator 1
	movq	gyro+24(%rip), %rax	# gyro.isDataReady, D.2596
	call	*%rax	# D.2596
	testb	%al, %al	# D.2597
	je	.L2	#,
	.loc 1 38 0 discriminator 3
	movl	$1, %eax	#, D.2595
	jmp	.L3	#
.L2:
	.loc 1 38 0 discriminator 4
	movl	$0, %eax	#, D.2595
.L3:
	.loc 1 38 0 discriminator 6
	andl	$1, %eax	#, D.2597
	.loc 1 39 0 is_stmt 1 discriminator 6
	popq	%rbp	#
	.cfi_def_cfa 7, 8
	ret
	.cfi_endproc
.LFE2:
	.size	gyroSyncCheckUpdate, .-gyroSyncCheckUpdate
	.section	.text.gyroSetSampleRate,"ax",@progbits
	.globl	gyroSetSampleRate
	.type	gyroSetSampleRate, @function
gyroSetSampleRate:
.LFB3:
	.loc 1 42 0
	.cfi_startproc
	pushq	%rbp	#
	.cfi_def_cfa_offset 16
	.cfi_offset 6, -16
	movq	%rsp, %rbp	#,
	.cfi_def_cfa_register 6
	movl	%edi, -20(%rbp)	# looptime, looptime
	movl	%ecx, %eax	# gyroSyncDenominator, tmp93
	movb	%sil, -24(%rbp)	# tmp91, lpf
	movb	%dl, -28(%rbp)	# tmp92, gyroSync
	movb	%al, -32(%rbp)	# tmp93, gyroSyncDenominator
	.loc 1 43 0
	cmpb	$0, -28(%rbp)	#, gyroSync
	je	.L6	#,
.LBB2:
	.loc 1 45 0
	cmpb	$0, -24(%rbp)	#, lpf
	jne	.L7	#,
	.loc 1 46 0
	movl	$125, -4(%rbp)	#, gyroSamplePeriod
	jmp	.L8	#
.L7:
	.loc 1 48 0
	movl	$1000, -4(%rbp)	#, gyroSamplePeriod
.L8:
	.loc 1 50 0
	movzbl	-32(%rbp), %eax	# gyroSyncDenominator, tmp94
	subl	$1, %eax	#, D.2598
	movb	%al, mpuDividerDrops(%rip)	# D.2598, mpuDividerDrops
	.loc 1 51 0
	movzbl	-32(%rbp), %eax	# gyroSyncDenominator, D.2599
	imull	-4(%rbp), %eax	# gyroSamplePeriod, D.2599
	movl	%eax, targetLooptime(%rip)	# D.2600, targetLooptime
.LBE2:
	.loc 1 56 0
	jmp	.L10	#
.L6:
	.loc 1 53 0
	movb	$0, mpuDividerDrops(%rip)	#, mpuDividerDrops
	.loc 1 54 0
	movl	-20(%rbp), %eax	# looptime, tmp95
	movl	%eax, targetLooptime(%rip)	# tmp95, targetLooptime
.L10:
	.loc 1 56 0
	nop
	popq	%rbp	#
	.cfi_def_cfa 7, 8
	ret
	.cfi_endproc
.LFE3:
	.size	gyroSetSampleRate, .-gyroSetSampleRate
	.section	.text.gyroMPU6xxxCalculateDivider,"ax",@progbits
	.globl	gyroMPU6xxxCalculateDivider
	.type	gyroMPU6xxxCalculateDivider, @function
gyroMPU6xxxCalculateDivider:
.LFB4:
	.loc 1 59 0
	.cfi_startproc
	pushq	%rbp	#
	.cfi_def_cfa_offset 16
	.cfi_offset 6, -16
	movq	%rsp, %rbp	#,
	.cfi_def_cfa_register 6
	.loc 1 60 0
	movzbl	mpuDividerDrops(%rip), %eax	# mpuDividerDrops, D.2601
	.loc 1 61 0
	popq	%rbp	#
	.cfi_def_cfa 7, 8
	ret
	.cfi_endproc
.LFE4:
	.size	gyroMPU6xxxCalculateDivider, .-gyroMPU6xxxCalculateDivider
	.text
.Letext0:
	.file 2 "/usr/include/stdint.h"
	.file 3 "./src/main/drivers/sensor.h"
	.file 4 "./src/main/drivers/accgyro.h"
	.file 5 "./src/main/target/edison/target.h"
	.section	.note.GNU-stack,"",@progbits
