	.file	"imu.c"
# GNU C99 (Ubuntu 5.4.1-2ubuntu1~16.04) version 5.4.1 20160904 (x86_64-linux-gnu)
#	compiled by GNU C version 5.4.1 20160904, GMP version 6.1.0, MPFR version 3.1.4, MPC version 1.0.3
# GGC heuristics: --param ggc-min-expand=100 --param ggc-min-heapsize=131072
# options passed:  -fpreprocessed imu.i -mtune=generic -march=x86-64 -g
# -std=gnu99 -ffunction-sections -fdata-sections -fverbose-asm
# -ffat-lto-objects -fstack-protector-strong -Wformat -Wformat-security
# options enabled:  -faggressive-loop-optimizations
# -fasynchronous-unwind-tables -fauto-inc-dec -fchkp-check-incomplete-type
# -fchkp-check-read -fchkp-check-write -fchkp-instrument-calls
# -fchkp-narrow-bounds -fchkp-optimize -fchkp-store-bounds
# -fchkp-use-static-bounds -fchkp-use-static-const-bounds
# -fchkp-use-wrappers -fcommon -fdata-sections -fdelete-null-pointer-checks
# -fdwarf2-cfi-asm -fearly-inlining -feliminate-unused-debug-types
# -ffunction-cse -ffunction-sections -fgcse-lm -fgnu-runtime -fgnu-unique
# -fident -finline-atomics -fira-hoist-pressure -fira-share-save-slots
# -fira-share-spill-slots -fivopts -fkeep-static-consts
# -fleading-underscore -flifetime-dse -flto-odr-type-merging -fmath-errno
# -fmerge-debug-strings -fpeephole -fprefetch-loop-arrays
# -freg-struct-return -fsched-critical-path-heuristic
# -fsched-dep-count-heuristic -fsched-group-heuristic -fsched-interblock
# -fsched-last-insn-heuristic -fsched-rank-heuristic -fsched-spec
# -fsched-spec-insn-heuristic -fsched-stalled-insns-dep -fschedule-fusion
# -fsemantic-interposition -fshow-column -fsigned-zeros
# -fsplit-ivs-in-unroller -fstack-protector-strong -fstdarg-opt
# -fstrict-volatile-bitfields -fsync-libcalls -ftrapping-math
# -ftree-coalesce-vars -ftree-cselim -ftree-forwprop -ftree-loop-if-convert
# -ftree-loop-im -ftree-loop-ivcanon -ftree-loop-optimize
# -ftree-parallelize-loops= -ftree-phiprop -ftree-reassoc -ftree-scev-cprop
# -funit-at-a-time -funwind-tables -fverbose-asm -fzero-initialized-in-bss
# -m128bit-long-double -m64 -m80387 -malign-stringops
# -mavx256-split-unaligned-load -mavx256-split-unaligned-store
# -mfancy-math-387 -mfp-ret-in-387 -mfxsr -mglibc -mieee-fp
# -mlong-double-80 -mmmx -mno-sse4 -mpush-args -mred-zone -msse -msse2
# -mtls-direct-seg-refs -mvzeroupper

	.text
.Ltext0:
	.comm	U_ID_0,4,4
	.comm	U_ID_1,4,4
	.comm	U_ID_2,4,4
	.comm	__pg_registry_start,8,8
	.comm	__pg_registry_end,8,8
	.comm	__pg_resetdata_start,8,8
	.comm	__pg_resetdata_end,8,8
	.comm	profileSelection_System,1,1
	.comm	sensorSelectionConfig_System,3,1
	.comm	sensorAlignmentConfig_System,12,8
	.comm	sensorTrims_System,12,8
	.comm	gyroConfig_System,4,2
	.comm	mixerConfig_System,6,2
	.comm	motor3DConfig_System,6,2
	.comm	imuConfig_System,12,8
	.comm	gpsConfig_System,16,16
	.comm	accSmooth,6,2
	.comm	accSum,12,8
	.globl	accTimeSum
	.section	.bss.accTimeSum,"aw",@nobits
	.align 4
	.type	accTimeSum, @object
	.size	accTimeSum, 4
accTimeSum:
	.zero	4
	.globl	accSumCount
	.section	.bss.accSumCount,"aw",@nobits
	.align 4
	.type	accSumCount, @object
	.size	accSumCount, 4
accSumCount:
	.zero	4
	.comm	accVelScale,4,4
	.comm	throttleAngleScale,4,4
	.comm	fc_acc,4,4
	.globl	smallAngleCosZ
	.section	.bss.smallAngleCosZ,"aw",@nobits
	.align 4
	.type	smallAngleCosZ, @object
	.size	smallAngleCosZ, 4
smallAngleCosZ:
	.zero	4
	.section	.bss.isAccelUpdatedAtLeastOnce,"aw",@nobits
	.type	isAccelUpdatedAtLeastOnce, @object
	.size	isAccelUpdatedAtLeastOnce, 1
isAccelUpdatedAtLeastOnce:
	.zero	1
	.section	.bss.imuRuntimeConfig,"aw",@nobits
	.align 8
	.type	imuRuntimeConfig, @object
	.size	imuRuntimeConfig, 8
imuRuntimeConfig:
	.zero	8
	.section	.bss.accDeadband,"aw",@nobits
	.align 8
	.type	accDeadband, @object
	.size	accDeadband, 8
accDeadband:
	.zero	8
	.globl	imuConfig_Registry
	.section	.pg_registry,"a",@progbits
	.align 8
	.type	imuConfig_Registry, @object
	.size	imuConfig_Registry, 32
imuConfig_Registry:
# pgn:
	.value	22
# size:
	.value	12
# address:
	.zero	4
	.quad	imuConfig_System
# ptr:
	.quad	0
# reset:
# ptr:
	.quad	pgResetTemplate_imuConfig
	.section	.bss.throttleCorrectionConfig_Storage,"aw",@nobits
	.align 8
	.type	throttleCorrectionConfig_Storage, @object
	.size	throttleCorrectionConfig_Storage, 12
throttleCorrectionConfig_Storage:
	.zero	12
	.comm	throttleCorrectionConfig_ProfileCurrent,8,8
	.globl	throttleCorrectionConfig_Registry
	.section	.pg_registry
	.align 8
	.type	throttleCorrectionConfig_Registry, @object
	.size	throttleCorrectionConfig_Registry, 32
throttleCorrectionConfig_Registry:
# pgn:
	.value	39
# size:
	.value	-32764
# address:
	.zero	4
	.quad	throttleCorrectionConfig_Storage
# ptr:
	.quad	throttleCorrectionConfig_ProfileCurrent
# reset:
# ptr:
	.quad	pgResetTemplate_throttleCorrectionConfig
	.globl	pgResetTemplate_imuConfig
	.section	.pg_resetdata,"a",@progbits
	.align 2
	.type	pgResetTemplate_imuConfig, @object
	.size	pgResetTemplate_imuConfig, 12
pgResetTemplate_imuConfig:
# looptime:
	.value	2000
# gyroSync:
	.byte	1
# gyroSyncDenominator:
	.byte	1
# dcm_kp:
	.value	2500
# small_angle:
	.zero	2
	.byte	25
# max_angle_inclination:
	.zero	1
	.value	500
	.globl	pgResetTemplate_throttleCorrectionConfig
	.align 2
	.type	pgResetTemplate_throttleCorrectionConfig, @object
	.size	pgResetTemplate_throttleCorrectionConfig, 4
pgResetTemplate_throttleCorrectionConfig:
# throttle_correction_angle:
	.value	800
# throttle_correction_value:
	.byte	0
	.zero	1
	.section	.data.q0,"aw",@progbits
	.align 4
	.type	q0, @object
	.size	q0, 4
q0:
	.long	1065353216
	.section	.bss.q1,"aw",@nobits
	.align 4
	.type	q1, @object
	.size	q1, 4
q1:
	.zero	4
	.section	.bss.q2,"aw",@nobits
	.align 4
	.type	q2, @object
	.size	q2, 4
q2:
	.zero	4
	.section	.bss.q3,"aw",@nobits
	.align 4
	.type	q3, @object
	.size	q3, 4
q3:
	.zero	4
	.section	.bss.rMat,"aw",@nobits
	.align 32
	.type	rMat, @object
	.size	rMat, 36
rMat:
	.zero	36
	.globl	attitude
	.section	.bss.attitude,"aw",@nobits
	.align 2
	.type	attitude, @object
	.size	attitude, 6
attitude:
	.zero	6
	.section	.bss.gyroScale,"aw",@nobits
	.align 4
	.type	gyroScale, @object
	.size	gyroScale, 4
gyroScale:
	.zero	4
	.section	.text.imuComputeRotationMatrix,"ax",@progbits
	.type	imuComputeRotationMatrix, @function
imuComputeRotationMatrix:
.LFB19:
	.file 1 "src/main/flight/imu.c"
	.loc 1 106 0
	.cfi_startproc
	pushq	%rbp	#
	.cfi_def_cfa_offset 16
	.cfi_offset 6, -16
	movq	%rsp, %rbp	#,
	.cfi_def_cfa_register 6
	.loc 1 107 0
	movss	q1(%rip), %xmm1	# q1, D.4487
	movss	q1(%rip), %xmm0	# q1, D.4487
	mulss	%xmm1, %xmm0	# D.4487, tmp129
	movss	%xmm0, -36(%rbp)	# tmp129, q1q1
	.loc 1 108 0
	movss	q2(%rip), %xmm1	# q2, D.4487
	movss	q2(%rip), %xmm0	# q2, D.4487
	mulss	%xmm1, %xmm0	# D.4487, tmp130
	movss	%xmm0, -32(%rbp)	# tmp130, q2q2
	.loc 1 109 0
	movss	q3(%rip), %xmm1	# q3, D.4487
	movss	q3(%rip), %xmm0	# q3, D.4487
	mulss	%xmm1, %xmm0	# D.4487, tmp131
	movss	%xmm0, -28(%rbp)	# tmp131, q3q3
	.loc 1 111 0
	movss	q0(%rip), %xmm1	# q0, D.4487
	movss	q1(%rip), %xmm0	# q1, D.4487
	mulss	%xmm1, %xmm0	# D.4487, tmp132
	movss	%xmm0, -24(%rbp)	# tmp132, q0q1
	.loc 1 112 0
	movss	q0(%rip), %xmm1	# q0, D.4487
	movss	q2(%rip), %xmm0	# q2, D.4487
	mulss	%xmm1, %xmm0	# D.4487, tmp133
	movss	%xmm0, -20(%rbp)	# tmp133, q0q2
	.loc 1 113 0
	movss	q0(%rip), %xmm1	# q0, D.4487
	movss	q3(%rip), %xmm0	# q3, D.4487
	mulss	%xmm1, %xmm0	# D.4487, tmp134
	movss	%xmm0, -16(%rbp)	# tmp134, q0q3
	.loc 1 114 0
	movss	q1(%rip), %xmm1	# q1, D.4487
	movss	q2(%rip), %xmm0	# q2, D.4487
	mulss	%xmm1, %xmm0	# D.4487, tmp135
	movss	%xmm0, -12(%rbp)	# tmp135, q1q2
	.loc 1 115 0
	movss	q1(%rip), %xmm1	# q1, D.4487
	movss	q3(%rip), %xmm0	# q3, D.4487
	mulss	%xmm1, %xmm0	# D.4487, tmp136
	movss	%xmm0, -8(%rbp)	# tmp136, q1q3
	.loc 1 116 0
	movss	q2(%rip), %xmm1	# q2, D.4487
	movss	q3(%rip), %xmm0	# q3, D.4487
	mulss	%xmm1, %xmm0	# D.4487, tmp137
	movss	%xmm0, -4(%rbp)	# tmp137, q2q3
	.loc 1 118 0
	movss	-32(%rbp), %xmm0	# q2q2, tmp138
	addss	%xmm0, %xmm0	# tmp138, D.4487
	movss	.LC0(%rip), %xmm1	#, tmp139
	subss	%xmm0, %xmm1	# D.4487, D.4487
	movss	-28(%rbp), %xmm0	# q3q3, tmp140
	addss	%xmm0, %xmm0	# tmp140, D.4487
	subss	%xmm0, %xmm1	# D.4487, D.4487
	movaps	%xmm1, %xmm0	# D.4487, D.4487
	movss	%xmm0, rMat(%rip)	# D.4487, rMat
	.loc 1 119 0
	movss	-12(%rbp), %xmm0	# q1q2, tmp141
	subss	-16(%rbp), %xmm0	# q0q3, D.4487
	addss	%xmm0, %xmm0	# D.4487, D.4487
	movss	%xmm0, rMat+4(%rip)	# D.4487, rMat
	.loc 1 120 0
	movss	-8(%rbp), %xmm0	# q1q3, tmp142
	addss	-20(%rbp), %xmm0	# q0q2, D.4487
	addss	%xmm0, %xmm0	# D.4487, D.4487
	movss	%xmm0, rMat+8(%rip)	# D.4487, rMat
	.loc 1 122 0
	movss	-12(%rbp), %xmm0	# q1q2, tmp143
	addss	-16(%rbp), %xmm0	# q0q3, D.4487
	addss	%xmm0, %xmm0	# D.4487, D.4487
	movss	%xmm0, rMat+12(%rip)	# D.4487, rMat
	.loc 1 123 0
	movss	-36(%rbp), %xmm0	# q1q1, tmp144
	addss	%xmm0, %xmm0	# tmp144, D.4487
	movss	.LC0(%rip), %xmm1	#, tmp145
	subss	%xmm0, %xmm1	# D.4487, D.4487
	movss	-28(%rbp), %xmm0	# q3q3, tmp146
	addss	%xmm0, %xmm0	# tmp146, D.4487
	subss	%xmm0, %xmm1	# D.4487, D.4487
	movaps	%xmm1, %xmm0	# D.4487, D.4487
	movss	%xmm0, rMat+16(%rip)	# D.4487, rMat
	.loc 1 124 0
	movss	-4(%rbp), %xmm0	# q2q3, tmp147
	subss	-24(%rbp), %xmm0	# q0q1, D.4487
	addss	%xmm0, %xmm0	# D.4487, D.4487
	movss	%xmm0, rMat+20(%rip)	# D.4487, rMat
	.loc 1 126 0
	movss	-8(%rbp), %xmm0	# q1q3, tmp148
	subss	-20(%rbp), %xmm0	# q0q2, D.4487
	addss	%xmm0, %xmm0	# D.4487, D.4487
	movss	%xmm0, rMat+24(%rip)	# D.4487, rMat
	.loc 1 127 0
	movss	-4(%rbp), %xmm0	# q2q3, tmp149
	addss	-24(%rbp), %xmm0	# q0q1, D.4487
	addss	%xmm0, %xmm0	# D.4487, D.4487
	movss	%xmm0, rMat+28(%rip)	# D.4487, rMat
	.loc 1 128 0
	movss	-36(%rbp), %xmm0	# q1q1, tmp150
	addss	%xmm0, %xmm0	# tmp150, D.4487
	movss	.LC0(%rip), %xmm1	#, tmp151
	subss	%xmm0, %xmm1	# D.4487, D.4487
	movss	-32(%rbp), %xmm0	# q2q2, tmp152
	addss	%xmm0, %xmm0	# tmp152, D.4487
	subss	%xmm0, %xmm1	# D.4487, D.4487
	movaps	%xmm1, %xmm0	# D.4487, D.4487
	movss	%xmm0, rMat+32(%rip)	# D.4487, rMat
	.loc 1 129 0
	nop
	popq	%rbp	#
	.cfi_def_cfa 7, 8
	ret
	.cfi_endproc
.LFE19:
	.size	imuComputeRotationMatrix, .-imuComputeRotationMatrix
	.section	.text.imuConfigure,"ax",@progbits
	.globl	imuConfigure
	.type	imuConfigure, @function
imuConfigure:
.LFB20:
	.loc 1 137 0
	.cfi_startproc
	pushq	%rbp	#
	.cfi_def_cfa_offset 16
	.cfi_offset 6, -16
	movq	%rsp, %rbp	#,
	.cfi_def_cfa_register 6
	subq	$32, %rsp	#,
	movq	%rdi, -8(%rbp)	# initialImuRuntimeConfig, initialImuRuntimeConfig
	movq	%rsi, -16(%rbp)	# initialAccDeadband, initialAccDeadband
	movss	%xmm0, -20(%rbp)	# accz_lpf_cutoff, accz_lpf_cutoff
	movl	%edx, %eax	# throttle_correction_angle, tmp90
	movw	%ax, -24(%rbp)	# tmp90, throttle_correction_angle
	.loc 1 138 0
	movq	-8(%rbp), %rax	# initialImuRuntimeConfig, tmp91
	movq	%rax, imuRuntimeConfig(%rip)	# tmp91, imuRuntimeConfig
	.loc 1 139 0
	movq	-16(%rbp), %rax	# initialAccDeadband, tmp92
	movq	%rax, accDeadband(%rip)	# tmp92, accDeadband
	.loc 1 140 0
	movl	-20(%rbp), %eax	# accz_lpf_cutoff, tmp93
	movl	%eax, -28(%rbp)	# tmp93, %sfp
	movss	-28(%rbp), %xmm0	# %sfp,
	call	calculateAccZLowPassFilterRCTimeConstant	#
	movd	%xmm0, %eax	#, D.4488
	movl	%eax, fc_acc(%rip)	# D.4488, fc_acc
	.loc 1 141 0
	movzwl	-24(%rbp), %eax	# throttle_correction_angle, D.4489
	movl	%eax, %edi	# D.4489,
	call	calculateThrottleAngleScale	#
	movd	%xmm0, %eax	#, D.4488
	movl	%eax, throttleAngleScale(%rip)	# D.4488, throttleAngleScale
	.loc 1 142 0
	nop
	leave
	.cfi_def_cfa 7, 8
	ret
	.cfi_endproc
.LFE20:
	.size	imuConfigure, .-imuConfigure
	.section	.text.calculateThrottleAngleScale,"ax",@progbits
	.globl	calculateThrottleAngleScale
	.type	calculateThrottleAngleScale, @function
calculateThrottleAngleScale:
.LFB21:
	.loc 1 154 0
	.cfi_startproc
	pushq	%rbp	#
	.cfi_def_cfa_offset 16
	.cfi_offset 6, -16
	movq	%rsp, %rbp	#,
	.cfi_def_cfa_register 6
	movl	%edi, %eax	# throttle_correction_angle, tmp92
	movw	%ax, -4(%rbp)	# tmp92, throttle_correction_angle
	.loc 1 155 0
	movzwl	-4(%rbp), %eax	# throttle_correction_angle, D.4491
	pxor	%xmm0, %xmm0	# D.4492
	cvtsi2ss	%eax, %xmm0	# D.4491, D.4492
	movss	.LC1(%rip), %xmm1	#, tmp93
	divss	%xmm0, %xmm1	# D.4492, D.4492
	movaps	%xmm1, %xmm0	# D.4492, D.4492
	movss	.LC2(%rip), %xmm1	#, tmp94
	mulss	%xmm1, %xmm0	# tmp94, D.4492
	.loc 1 156 0
	popq	%rbp	#
	.cfi_def_cfa 7, 8
	ret
	.cfi_endproc
.LFE21:
	.size	calculateThrottleAngleScale, .-calculateThrottleAngleScale
	.section	.text.calculateAccZLowPassFilterRCTimeConstant,"ax",@progbits
	.globl	calculateAccZLowPassFilterRCTimeConstant
	.type	calculateAccZLowPassFilterRCTimeConstant, @function
calculateAccZLowPassFilterRCTimeConstant:
.LFB22:
	.loc 1 162 0
	.cfi_startproc
	pushq	%rbp	#
	.cfi_def_cfa_offset 16
	.cfi_offset 6, -16
	movq	%rsp, %rbp	#,
	.cfi_def_cfa_register 6
	movss	%xmm0, -4(%rbp)	# accz_lpf_cutoff, accz_lpf_cutoff
	.loc 1 163 0
	movss	-4(%rbp), %xmm1	# accz_lpf_cutoff, tmp90
	movss	.LC3(%rip), %xmm0	#, tmp91
	mulss	%xmm1, %xmm0	# tmp90, D.4493
	movss	.LC4(%rip), %xmm1	#, tmp92
	divss	%xmm0, %xmm1	# D.4493, D.4493
	movaps	%xmm1, %xmm0	# D.4493, D.4493
	.loc 1 164 0
	popq	%rbp	#
	.cfi_def_cfa 7, 8
	ret
	.cfi_endproc
.LFE22:
	.size	calculateAccZLowPassFilterRCTimeConstant, .-calculateAccZLowPassFilterRCTimeConstant
	.section	.text.imuResetAccelerationSum,"ax",@progbits
	.globl	imuResetAccelerationSum
	.type	imuResetAccelerationSum, @function
imuResetAccelerationSum:
.LFB23:
	.loc 1 167 0
	.cfi_startproc
	pushq	%rbp	#
	.cfi_def_cfa_offset 16
	.cfi_offset 6, -16
	movq	%rsp, %rbp	#,
	.cfi_def_cfa_register 6
	.loc 1 168 0
	movl	$0, accSum(%rip)	#, accSum
	.loc 1 169 0
	movl	$0, accSum+4(%rip)	#, accSum
	.loc 1 170 0
	movl	$0, accSum+8(%rip)	#, accSum
	.loc 1 171 0
	movl	$0, accSumCount(%rip)	#, accSumCount
	.loc 1 172 0
	movl	$0, accTimeSum(%rip)	#, accTimeSum
	.loc 1 173 0
	nop
	popq	%rbp	#
	.cfi_def_cfa 7, 8
	ret
	.cfi_endproc
.LFE23:
	.size	imuResetAccelerationSum, .-imuResetAccelerationSum
	.section	.text.imuTransformVectorBodyToEarth,"ax",@progbits
	.globl	imuTransformVectorBodyToEarth
	.type	imuTransformVectorBodyToEarth, @function
imuTransformVectorBodyToEarth:
.LFB24:
	.loc 1 176 0
	.cfi_startproc
	pushq	%rbp	#
	.cfi_def_cfa_offset 16
	.cfi_offset 6, -16
	movq	%rsp, %rbp	#,
	.cfi_def_cfa_register 6
	movq	%rdi, -24(%rbp)	# v, v
	.loc 1 180 0
	movss	rMat(%rip), %xmm1	# rMat, D.4494
	movq	-24(%rbp), %rax	# v, tmp118
	movss	(%rax), %xmm0	# v_3(D)->V.X, D.4494
	mulss	%xmm0, %xmm1	# D.4494, D.4494
	movss	rMat+4(%rip), %xmm2	# rMat, D.4494
	movq	-24(%rbp), %rax	# v, tmp119
	movss	4(%rax), %xmm0	# v_3(D)->V.Y, D.4494
	mulss	%xmm2, %xmm0	# D.4494, D.4494
	addss	%xmm0, %xmm1	# D.4494, D.4494
	movss	rMat+8(%rip), %xmm2	# rMat, D.4494
	movq	-24(%rbp), %rax	# v, tmp120
	movss	8(%rax), %xmm0	# v_3(D)->V.Z, D.4494
	mulss	%xmm2, %xmm0	# D.4494, D.4494
	addss	%xmm1, %xmm0	# D.4494, tmp121
	movss	%xmm0, -12(%rbp)	# tmp121, x
	.loc 1 181 0
	movss	rMat+12(%rip), %xmm1	# rMat, D.4494
	movq	-24(%rbp), %rax	# v, tmp122
	movss	(%rax), %xmm0	# v_3(D)->V.X, D.4494
	mulss	%xmm0, %xmm1	# D.4494, D.4494
	movss	rMat+16(%rip), %xmm2	# rMat, D.4494
	movq	-24(%rbp), %rax	# v, tmp123
	movss	4(%rax), %xmm0	# v_3(D)->V.Y, D.4494
	mulss	%xmm2, %xmm0	# D.4494, D.4494
	addss	%xmm0, %xmm1	# D.4494, D.4494
	movss	rMat+20(%rip), %xmm2	# rMat, D.4494
	movq	-24(%rbp), %rax	# v, tmp124
	movss	8(%rax), %xmm0	# v_3(D)->V.Z, D.4494
	mulss	%xmm2, %xmm0	# D.4494, D.4494
	addss	%xmm1, %xmm0	# D.4494, tmp125
	movss	%xmm0, -8(%rbp)	# tmp125, y
	.loc 1 182 0
	movss	rMat+24(%rip), %xmm1	# rMat, D.4494
	movq	-24(%rbp), %rax	# v, tmp126
	movss	(%rax), %xmm0	# v_3(D)->V.X, D.4494
	mulss	%xmm0, %xmm1	# D.4494, D.4494
	movss	rMat+28(%rip), %xmm2	# rMat, D.4494
	movq	-24(%rbp), %rax	# v, tmp127
	movss	4(%rax), %xmm0	# v_3(D)->V.Y, D.4494
	mulss	%xmm2, %xmm0	# D.4494, D.4494
	addss	%xmm0, %xmm1	# D.4494, D.4494
	movss	rMat+32(%rip), %xmm2	# rMat, D.4494
	movq	-24(%rbp), %rax	# v, tmp128
	movss	8(%rax), %xmm0	# v_3(D)->V.Z, D.4494
	mulss	%xmm2, %xmm0	# D.4494, D.4494
	addss	%xmm1, %xmm0	# D.4494, tmp129
	movss	%xmm0, -4(%rbp)	# tmp129, z
	.loc 1 184 0
	movq	-24(%rbp), %rax	# v, tmp130
	movss	-12(%rbp), %xmm0	# x, tmp131
	movss	%xmm0, (%rax)	# tmp131, v_3(D)->V.X
	.loc 1 185 0
	movss	-8(%rbp), %xmm1	# y, tmp132
	movss	.LC5(%rip), %xmm0	#, tmp133
	xorps	%xmm1, %xmm0	# tmp132, D.4494
	movq	-24(%rbp), %rax	# v, tmp134
	movss	%xmm0, 4(%rax)	# D.4494, v_3(D)->V.Y
	.loc 1 186 0
	movq	-24(%rbp), %rax	# v, tmp135
	movss	-4(%rbp), %xmm0	# z, tmp136
	movss	%xmm0, 8(%rax)	# tmp136, v_3(D)->V.Z
	.loc 1 187 0
	nop
	popq	%rbp	#
	.cfi_def_cfa 7, 8
	ret
	.cfi_endproc
.LFE24:
	.size	imuTransformVectorBodyToEarth, .-imuTransformVectorBodyToEarth
	.section	.text.imuCalculateAcceleration,"ax",@progbits
	.globl	imuCalculateAcceleration
	.type	imuCalculateAcceleration, @function
imuCalculateAcceleration:
.LFB25:
	.loc 1 191 0
	.cfi_startproc
	pushq	%rbp	#
	.cfi_def_cfa_offset 16
	.cfi_offset 6, -16
	movq	%rsp, %rbp	#,
	.cfi_def_cfa_register 6
	pushq	%rbx	#
	subq	$72, %rsp	#,
	.cfi_offset 3, -24
	movl	%edi, -68(%rbp)	# deltaT, deltaT
	.loc 1 191 0
	movq	%fs:40, %rax	#, tmp176
	movq	%rax, -24(%rbp)	# tmp176, D.4504
	xorl	%eax, %eax	# tmp176
	.loc 1 198 0
	movl	-68(%rbp), %eax	# deltaT, tmp158
	testq	%rax, %rax	# tmp158
	js	.L10	#,
	pxor	%xmm0, %xmm0	# D.4495
	cvtsi2ssq	%rax, %xmm0	# tmp158, D.4495
	jmp	.L11	#
.L10:
	movq	%rax, %rdx	# tmp158, tmp160
	shrq	%rdx	# tmp160
	andl	$1, %eax	#, tmp161
	orq	%rax, %rdx	# tmp161, tmp160
	pxor	%xmm0, %xmm0	# tmp159
	cvtsi2ssq	%rdx, %xmm0	# tmp160, tmp159
	addss	%xmm0, %xmm0	# tmp159, D.4495
.L11:
	movss	.LC6(%rip), %xmm1	#, tmp163
	mulss	%xmm1, %xmm0	# tmp163, tmp162
	movss	%xmm0, -52(%rbp)	# tmp162, dT
	.loc 1 200 0
	movzwl	accSmooth(%rip), %eax	# accSmooth, D.4496
	cwtl
	pxor	%xmm0, %xmm0	# D.4495
	cvtsi2ss	%eax, %xmm0	# tmp164, D.4495
	movss	%xmm0, -48(%rbp)	# D.4495, accel_ned.V.X
	.loc 1 201 0
	movzwl	accSmooth+2(%rip), %eax	# accSmooth, D.4496
	cwtl
	pxor	%xmm0, %xmm0	# D.4495
	cvtsi2ss	%eax, %xmm0	# tmp165, D.4495
	movss	%xmm0, -44(%rbp)	# D.4495, accel_ned.V.Y
	.loc 1 202 0
	movzwl	accSmooth+4(%rip), %eax	# accSmooth, D.4496
	cwtl
	pxor	%xmm0, %xmm0	# D.4495
	cvtsi2ss	%eax, %xmm0	# tmp166, D.4495
	movss	%xmm0, -40(%rbp)	# D.4495, accel_ned.V.Z
	.loc 1 204 0
	leaq	-48(%rbp), %rax	#, tmp167
	movq	%rax, %rdi	# tmp167,
	call	imuTransformVectorBodyToEarth	#
	.loc 1 206 0
	movq	imuRuntimeConfig(%rip), %rax	# imuRuntimeConfig, D.4497
	movzbl	1(%rax), %eax	# _17->acc_unarmedcal, D.4498
	cmpb	$1, %al	#, D.4498
	jne	.L12	#,
	.loc 1 207 0
	movzbl	armingFlags(%rip), %eax	# armingFlags, D.4498
	movzbl	%al, %eax	# D.4498, D.4499
	andl	$4, %eax	#, D.4499
	testl	%eax, %eax	# D.4499
	jne	.L13	#,
	.loc 1 208 0
	movl	accZoffset.3947(%rip), %edx	# accZoffset, D.4499
	movl	accZoffset.3947(%rip), %eax	# accZoffset, D.4499
	leal	63(%rax), %ecx	#, tmp169
	testl	%eax, %eax	# tmp168
	cmovs	%ecx, %eax	# tmp169,, tmp168
	sarl	$6, %eax	#, tmp170
	subl	%eax, %edx	# D.4499, D.4499
	movl	%edx, %eax	# D.4499, D.4499
	movl	%eax, accZoffset.3947(%rip)	# D.4499, accZoffset
	.loc 1 209 0
	movl	accZoffset.3947(%rip), %eax	# accZoffset, D.4499
	pxor	%xmm0, %xmm0	# D.4495
	cvtsi2ss	%eax, %xmm0	# D.4499, D.4495
	movss	-40(%rbp), %xmm1	# accel_ned.V.Z, D.4495
	addss	%xmm1, %xmm0	# D.4495, D.4495
	cvttss2si	%xmm0, %eax	# D.4495, D.4499
	movl	%eax, accZoffset.3947(%rip)	# D.4499, accZoffset
.L13:
	.loc 1 211 0
	movss	-40(%rbp), %xmm1	# accel_ned.V.Z, D.4495
	movl	accZoffset.3947(%rip), %eax	# accZoffset, D.4499
	leal	63(%rax), %edx	#, tmp172
	testl	%eax, %eax	# tmp171
	cmovs	%edx, %eax	# tmp172,, tmp171
	sarl	$6, %eax	#, tmp173
	pxor	%xmm0, %xmm0	# D.4495
	cvtsi2ss	%eax, %xmm0	# D.4499, D.4495
	subss	%xmm0, %xmm1	# D.4495, D.4495
	movaps	%xmm1, %xmm0	# D.4495, D.4495
	movss	%xmm0, -40(%rbp)	# D.4495, accel_ned.V.Z
	jmp	.L14	#
.L12:
	.loc 1 213 0
	movss	-40(%rbp), %xmm1	# accel_ned.V.Z, D.4495
	movzwl	acc+16(%rip), %eax	# acc.acc_1G, D.4500
	movzwl	%ax, %eax	# D.4500, D.4499
	pxor	%xmm0, %xmm0	# D.4495
	cvtsi2ss	%eax, %xmm0	# D.4499, D.4495
	subss	%xmm0, %xmm1	# D.4495, D.4495
	movaps	%xmm1, %xmm0	# D.4495, D.4495
	movss	%xmm0, -40(%rbp)	# D.4495, accel_ned.V.Z
.L14:
	.loc 1 215 0
	movss	fc_acc(%rip), %xmm0	# fc_acc, D.4495
	addss	-52(%rbp), %xmm0	# dT, D.4495
	movss	-52(%rbp), %xmm1	# dT, tmp174
	divss	%xmm0, %xmm1	# D.4495, D.4495
	movss	-40(%rbp), %xmm0	# accel_ned.V.Z, D.4495
	movss	accz_smooth.3948(%rip), %xmm2	# accz_smooth, D.4495
	subss	%xmm2, %xmm0	# D.4495, D.4495
	mulss	%xmm1, %xmm0	# D.4495, D.4495
	movss	accz_smooth.3948(%rip), %xmm1	# accz_smooth, D.4495
	addss	%xmm1, %xmm0	# D.4495, D.4495
	movss	%xmm0, accz_smooth.3948(%rip)	# D.4495, accz_smooth
	.loc 1 218 0
	movq	accDeadband(%rip), %rax	# accDeadband, D.4501
	movzbl	(%rax), %eax	# _55->xy, D.4498
	movzbl	%al, %ebx	# D.4498, D.4499
	movl	-48(%rbp), %eax	# accel_ned.V.X, D.4495
	movl	%eax, -72(%rbp)	# D.4495, %sfp
	movss	-72(%rbp), %xmm0	# %sfp,
	call	lrintf	#
	movl	%ebx, %esi	# D.4499,
	movl	%eax, %edi	# D.4499,
	call	applyDeadband	#
	movl	%eax, %edx	#, D.4499
	movl	accSum(%rip), %eax	# accSum, D.4499
	addl	%edx, %eax	# D.4499, D.4499
	movl	%eax, accSum(%rip)	# D.4499, accSum
	.loc 1 219 0
	movq	accDeadband(%rip), %rax	# accDeadband, D.4501
	movzbl	(%rax), %eax	# _67->xy, D.4498
	movzbl	%al, %ebx	# D.4498, D.4499
	movl	-44(%rbp), %eax	# accel_ned.V.Y, D.4495
	movl	%eax, -72(%rbp)	# D.4495, %sfp
	movss	-72(%rbp), %xmm0	# %sfp,
	call	lrintf	#
	movl	%ebx, %esi	# D.4499,
	movl	%eax, %edi	# D.4499,
	call	applyDeadband	#
	movl	%eax, %edx	#, D.4499
	movl	accSum+4(%rip), %eax	# accSum, D.4499
	addl	%edx, %eax	# D.4499, D.4499
	movl	%eax, accSum+4(%rip)	# D.4499, accSum
	.loc 1 220 0
	movq	accDeadband(%rip), %rax	# accDeadband, D.4501
	movzbl	1(%rax), %eax	# _79->z, D.4498
	movzbl	%al, %ebx	# D.4498, D.4499
	movl	accz_smooth.3948(%rip), %eax	# accz_smooth, D.4495
	movl	%eax, -72(%rbp)	# D.4495, %sfp
	movss	-72(%rbp), %xmm0	# %sfp,
	call	lrintf	#
	movl	%ebx, %esi	# D.4499,
	movl	%eax, %edi	# D.4499,
	call	applyDeadband	#
	movl	%eax, %edx	#, D.4499
	movl	accSum+8(%rip), %eax	# accSum, D.4499
	addl	%edx, %eax	# D.4499, D.4499
	movl	%eax, accSum+8(%rip)	# D.4499, accSum
	.loc 1 223 0
	movl	accTimeSum(%rip), %edx	# accTimeSum, D.4503
	movl	-68(%rbp), %eax	# deltaT, tmp175
	addl	%edx, %eax	# D.4503, D.4503
	movl	%eax, accTimeSum(%rip)	# D.4503, accTimeSum
	.loc 1 224 0
	movl	accSumCount(%rip), %eax	# accSumCount, D.4499
	addl	$1, %eax	#, D.4499
	movl	%eax, accSumCount(%rip)	# D.4499, accSumCount
	.loc 1 225 0
	nop
	movq	-24(%rbp), %rax	# D.4504, tmp177
	xorq	%fs:40, %rax	#, tmp177
	je	.L15	#,
	call	__stack_chk_fail	#
.L15:
	addq	$72, %rsp	#,
	popq	%rbx	#
	popq	%rbp	#
	.cfi_def_cfa 7, 8
	ret
	.cfi_endproc
.LFE25:
	.size	imuCalculateAcceleration, .-imuCalculateAcceleration
	.section	.text.invSqrt,"ax",@progbits
	.type	invSqrt, @function
invSqrt:
.LFB26:
	.loc 1 228 0
	.cfi_startproc
	pushq	%rbp	#
	.cfi_def_cfa_offset 16
	.cfi_offset 6, -16
	movq	%rsp, %rbp	#,
	.cfi_def_cfa_register 6
	subq	$16, %rsp	#,
	movss	%xmm0, -4(%rbp)	# x, x
	.loc 1 229 0
	movl	-4(%rbp), %eax	# x, tmp90
	movl	%eax, -8(%rbp)	# tmp90, %sfp
	movss	-8(%rbp), %xmm0	# %sfp,
	call	sqrtf	#
	movaps	%xmm0, %xmm1	#, D.4507
	movss	.LC0(%rip), %xmm0	#, tmp91
	divss	%xmm1, %xmm0	# D.4507, D.4507
	.loc 1 230 0
	leave
	.cfi_def_cfa 7, 8
	ret
	.cfi_endproc
.LFE26:
	.size	invSqrt, .-invSqrt
	.section	.text.imuUseFastGains,"ax",@progbits
	.type	imuUseFastGains, @function
imuUseFastGains:
.LFB27:
	.loc 1 233 0
	.cfi_startproc
	pushq	%rbp	#
	.cfi_def_cfa_offset 16
	.cfi_offset 6, -16
	movq	%rsp, %rbp	#,
	.cfi_def_cfa_register 6
	.loc 1 234 0
	movzbl	armingFlags(%rip), %eax	# armingFlags, D.4509
	movzbl	%al, %eax	# D.4509, D.4508
	andl	$4, %eax	#, D.4508
	testl	%eax, %eax	# D.4508
	jne	.L19	#,
	.loc 1 234 0 is_stmt 0 discriminator 1
	call	millis	#
	cmpq	$19999, %rax	#, D.4510
	ja	.L19	#,
	.loc 1 234 0 discriminator 3
	movl	$1, %eax	#, D.4508
	jmp	.L20	#
.L19:
	.loc 1 234 0 discriminator 4
	movl	$0, %eax	#, D.4508
.L20:
	.loc 1 234 0 discriminator 6
	andl	$1, %eax	#, D.4511
	.loc 1 235 0 is_stmt 1 discriminator 6
	popq	%rbp	#
	.cfi_def_cfa 7, 8
	ret
	.cfi_endproc
.LFE27:
	.size	imuUseFastGains, .-imuUseFastGains
	.section	.text.imuGetPGainScaleFactor,"ax",@progbits
	.type	imuGetPGainScaleFactor, @function
imuGetPGainScaleFactor:
.LFB28:
	.loc 1 238 0
	.cfi_startproc
	pushq	%rbp	#
	.cfi_def_cfa_offset 16
	.cfi_offset 6, -16
	movq	%rsp, %rbp	#,
	.cfi_def_cfa_register 6
	.loc 1 239 0
	call	imuUseFastGains	#
	testb	%al, %al	# D.4513
	je	.L23	#,
	.loc 1 240 0
	movss	.LC7(%rip), %xmm0	#, D.4512
	jmp	.L24	#
.L23:
	.loc 1 243 0
	movss	.LC0(%rip), %xmm0	#, D.4512
.L24:
	.loc 1 245 0
	popq	%rbp	#
	.cfi_def_cfa 7, 8
	ret
	.cfi_endproc
.LFE28:
	.size	imuGetPGainScaleFactor, .-imuGetPGainScaleFactor
	.section	.text.imuMahonyAHRSupdate,"ax",@progbits
	.type	imuMahonyAHRSupdate, @function
imuMahonyAHRSupdate:
.LFB29:
	.loc 1 251 0
	.cfi_startproc
	pushq	%rbp	#
	.cfi_def_cfa_offset 16
	.cfi_offset 6, -16
	movq	%rsp, %rbp	#,
	.cfi_def_cfa_register 6
	subq	$112, %rsp	#,
	movss	%xmm0, -68(%rbp)	# dt, dt
	movss	%xmm1, -72(%rbp)	# gx, gx
	movss	%xmm2, -76(%rbp)	# gy, gy
	movss	%xmm3, -80(%rbp)	# gz, gz
	movss	%xmm4, -88(%rbp)	# ax, ax
	movss	%xmm5, -92(%rbp)	# ay, ay
	movss	%xmm6, -96(%rbp)	# az, az
	movl	%esi, %ecx	# useMag, tmp227
	movss	%xmm7, -104(%rbp)	# mx, mx
	movl	%edx, %eax	# useYaw, tmp228
	movb	%dil, -84(%rbp)	# tmp226, useAcc
	movb	%cl, -100(%rbp)	# tmp227, useMag
	movb	%al, -108(%rbp)	# tmp228, useYaw
	.loc 1 255 0
	pxor	%xmm0, %xmm0	# tmp229
	movss	%xmm0, -56(%rbp)	# tmp229, ex
	pxor	%xmm0, %xmm0	# tmp230
	movss	%xmm0, -52(%rbp)	# tmp230, ey
	pxor	%xmm0, %xmm0	# tmp231
	movss	%xmm0, -48(%rbp)	# tmp231, ez
	.loc 1 259 0
	movss	-72(%rbp), %xmm0	# gx, tmp232
	movaps	%xmm0, %xmm1	# tmp232, D.4514
	mulss	-72(%rbp), %xmm1	# gx, D.4514
	movss	-76(%rbp), %xmm0	# gy, tmp233
	mulss	-76(%rbp), %xmm0	# gy, D.4514
	addss	%xmm0, %xmm1	# D.4514, D.4514
	movss	-80(%rbp), %xmm0	# gz, tmp234
	mulss	-80(%rbp), %xmm0	# gz, D.4514
	addss	%xmm1, %xmm0	# D.4514, D.4514
	call	sqrtf	#
	movd	%xmm0, %eax	#, tmp235
	movl	%eax, -44(%rbp)	# tmp235, spin_rate
	.loc 1 262 0
	cmpb	$0, -108(%rbp)	#, useYaw
	je	.L26	#,
	.loc 1 263 0
	jmp	.L27	#
.L28:
	.loc 1 263 0 is_stmt 0 discriminator 2
	movss	32(%rbp), %xmm0	# yawError, tmp237
	movss	.LC9(%rip), %xmm1	#, tmp238
	subss	%xmm1, %xmm0	# tmp238, tmp236
	movss	%xmm0, 32(%rbp)	# tmp236, yawError
.L27:
	.loc 1 263 0 discriminator 1
	movss	32(%rbp), %xmm0	# yawError, tmp239
	ucomiss	.LC3(%rip), %xmm0	#, tmp239
	ja	.L28	#,
	.loc 1 264 0 is_stmt 1
	jmp	.L29	#
.L30:
	.loc 1 264 0 is_stmt 0 discriminator 2
	movss	32(%rbp), %xmm1	# yawError, tmp241
	movss	.LC9(%rip), %xmm0	#, tmp242
	addss	%xmm1, %xmm0	# tmp241, tmp240
	movss	%xmm0, 32(%rbp)	# tmp240, yawError
.L29:
	.loc 1 264 0 discriminator 1
	movss	.LC10(%rip), %xmm0	#, tmp243
	ucomiss	32(%rbp), %xmm0	# yawError, tmp243
	ja	.L30	#,
	.loc 1 266 0 is_stmt 1
	movss	32(%rbp), %xmm0	# yawError, tmp244
	movss	.LC11(%rip), %xmm1	#, tmp245
	divss	%xmm1, %xmm0	# tmp245, D.4514
	call	sinf	#
	movaps	%xmm0, %xmm1	#, D.4514
	movss	-48(%rbp), %xmm0	# ez, tmp247
	addss	%xmm1, %xmm0	# D.4514, tmp246
	movss	%xmm0, -48(%rbp)	# tmp246, ez
.L26:
	.loc 1 270 0
	movss	-104(%rbp), %xmm0	# mx, tmp248
	movaps	%xmm0, %xmm1	# tmp248, D.4514
	mulss	-104(%rbp), %xmm1	# mx, D.4514
	movss	16(%rbp), %xmm0	# my, tmp249
	mulss	16(%rbp), %xmm0	# my, D.4514
	addss	%xmm0, %xmm1	# D.4514, D.4514
	movss	24(%rbp), %xmm0	# mz, tmp250
	mulss	24(%rbp), %xmm0	# mz, D.4514
	addss	%xmm1, %xmm0	# D.4514, tmp251
	movss	%xmm0, -40(%rbp)	# tmp251, recipNorm
	.loc 1 271 0
	cmpb	$0, -100(%rbp)	#, useMag
	je	.L31	#,
	.loc 1 271 0 is_stmt 0 discriminator 1
	movss	-40(%rbp), %xmm0	# recipNorm, tmp252
	ucomiss	.LC12(%rip), %xmm0	#, tmp252
	jbe	.L31	#,
.LBB2:
	.loc 1 273 0 is_stmt 1
	movl	-40(%rbp), %eax	# recipNorm, tmp253
	movl	%eax, -112(%rbp)	# tmp253, %sfp
	movss	-112(%rbp), %xmm0	# %sfp,
	call	invSqrt	#
	movd	%xmm0, %eax	#, tmp254
	movl	%eax, -40(%rbp)	# tmp254, recipNorm
	.loc 1 274 0
	movss	-104(%rbp), %xmm0	# mx, tmp256
	mulss	-40(%rbp), %xmm0	# recipNorm, tmp255
	movss	%xmm0, -104(%rbp)	# tmp255, mx
	.loc 1 275 0
	movss	16(%rbp), %xmm0	# my, tmp258
	mulss	-40(%rbp), %xmm0	# recipNorm, tmp257
	movss	%xmm0, 16(%rbp)	# tmp257, my
	.loc 1 276 0
	movss	24(%rbp), %xmm0	# mz, tmp260
	mulss	-40(%rbp), %xmm0	# recipNorm, tmp259
	movss	%xmm0, 24(%rbp)	# tmp259, mz
	.loc 1 283 0
	movss	rMat(%rip), %xmm0	# rMat, D.4514
	movaps	%xmm0, %xmm1	# D.4514, D.4514
	mulss	-104(%rbp), %xmm1	# mx, D.4514
	movss	rMat+4(%rip), %xmm0	# rMat, D.4514
	mulss	16(%rbp), %xmm0	# my, D.4514
	addss	%xmm0, %xmm1	# D.4514, D.4514
	movss	rMat+8(%rip), %xmm0	# rMat, D.4514
	mulss	24(%rbp), %xmm0	# mz, D.4514
	addss	%xmm1, %xmm0	# D.4514, tmp261
	movss	%xmm0, -36(%rbp)	# tmp261, hx
	.loc 1 284 0
	movss	rMat+12(%rip), %xmm0	# rMat, D.4514
	movaps	%xmm0, %xmm1	# D.4514, D.4514
	mulss	-104(%rbp), %xmm1	# mx, D.4514
	movss	rMat+16(%rip), %xmm0	# rMat, D.4514
	mulss	16(%rbp), %xmm0	# my, D.4514
	addss	%xmm0, %xmm1	# D.4514, D.4514
	movss	rMat+20(%rip), %xmm0	# rMat, D.4514
	mulss	24(%rbp), %xmm0	# mz, D.4514
	addss	%xmm1, %xmm0	# D.4514, tmp262
	movss	%xmm0, -32(%rbp)	# tmp262, hy
	.loc 1 285 0
	movss	-36(%rbp), %xmm0	# hx, tmp263
	movaps	%xmm0, %xmm1	# tmp263, D.4514
	mulss	-36(%rbp), %xmm1	# hx, D.4514
	movss	-32(%rbp), %xmm0	# hy, tmp264
	mulss	-32(%rbp), %xmm0	# hy, D.4514
	addss	%xmm1, %xmm0	# D.4514, D.4514
	call	sqrtf	#
	movd	%xmm0, %eax	#, tmp265
	movl	%eax, -28(%rbp)	# tmp265, bx
	.loc 1 288 0
	movss	-32(%rbp), %xmm0	# hy, tmp266
	mulss	-28(%rbp), %xmm0	# bx, D.4514
	movss	.LC5(%rip), %xmm1	#, tmp268
	xorps	%xmm1, %xmm0	# tmp268, tmp267
	movss	%xmm0, -24(%rbp)	# tmp267, ez_ef
	.loc 1 291 0
	movss	rMat+24(%rip), %xmm0	# rMat, D.4514
	mulss	-24(%rbp), %xmm0	# ez_ef, D.4514
	movss	-56(%rbp), %xmm1	# ex, tmp270
	addss	%xmm1, %xmm0	# tmp270, tmp269
	movss	%xmm0, -56(%rbp)	# tmp269, ex
	.loc 1 292 0
	movss	rMat+28(%rip), %xmm0	# rMat, D.4514
	mulss	-24(%rbp), %xmm0	# ez_ef, D.4514
	movss	-52(%rbp), %xmm1	# ey, tmp272
	addss	%xmm1, %xmm0	# tmp272, tmp271
	movss	%xmm0, -52(%rbp)	# tmp271, ey
	.loc 1 293 0
	movss	rMat+32(%rip), %xmm0	# rMat, D.4514
	mulss	-24(%rbp), %xmm0	# ez_ef, D.4514
	movss	-48(%rbp), %xmm1	# ez, tmp274
	addss	%xmm1, %xmm0	# tmp274, tmp273
	movss	%xmm0, -48(%rbp)	# tmp273, ez
.L31:
.LBE2:
	.loc 1 297 0
	movss	-88(%rbp), %xmm0	# ax, tmp275
	movaps	%xmm0, %xmm1	# tmp275, D.4514
	mulss	-88(%rbp), %xmm1	# ax, D.4514
	movss	-92(%rbp), %xmm0	# ay, tmp276
	mulss	-92(%rbp), %xmm0	# ay, D.4514
	addss	%xmm0, %xmm1	# D.4514, D.4514
	movss	-96(%rbp), %xmm0	# az, tmp277
	mulss	-96(%rbp), %xmm0	# az, D.4514
	addss	%xmm1, %xmm0	# D.4514, tmp278
	movss	%xmm0, -40(%rbp)	# tmp278, recipNorm
	.loc 1 298 0
	cmpb	$0, -84(%rbp)	#, useAcc
	je	.L33	#,
	.loc 1 298 0 is_stmt 0 discriminator 1
	movss	-40(%rbp), %xmm0	# recipNorm, tmp279
	ucomiss	.LC12(%rip), %xmm0	#, tmp279
	jbe	.L33	#,
	.loc 1 300 0 is_stmt 1
	movl	-40(%rbp), %eax	# recipNorm, tmp280
	movl	%eax, -112(%rbp)	# tmp280, %sfp
	movss	-112(%rbp), %xmm0	# %sfp,
	call	invSqrt	#
	movd	%xmm0, %eax	#, tmp281
	movl	%eax, -40(%rbp)	# tmp281, recipNorm
	.loc 1 301 0
	movss	-88(%rbp), %xmm0	# ax, tmp283
	mulss	-40(%rbp), %xmm0	# recipNorm, tmp282
	movss	%xmm0, -88(%rbp)	# tmp282, ax
	.loc 1 302 0
	movss	-92(%rbp), %xmm0	# ay, tmp285
	mulss	-40(%rbp), %xmm0	# recipNorm, tmp284
	movss	%xmm0, -92(%rbp)	# tmp284, ay
	.loc 1 303 0
	movss	-96(%rbp), %xmm0	# az, tmp287
	mulss	-40(%rbp), %xmm0	# recipNorm, tmp286
	movss	%xmm0, -96(%rbp)	# tmp286, az
	.loc 1 306 0
	movss	rMat+32(%rip), %xmm0	# rMat, D.4514
	mulss	-92(%rbp), %xmm0	# ay, D.4514
	movss	rMat+28(%rip), %xmm1	# rMat, D.4514
	mulss	-96(%rbp), %xmm1	# az, D.4514
	subss	%xmm1, %xmm0	# D.4514, D.4514
	movss	-56(%rbp), %xmm1	# ex, tmp289
	addss	%xmm1, %xmm0	# tmp289, tmp288
	movss	%xmm0, -56(%rbp)	# tmp288, ex
	.loc 1 307 0
	movss	rMat+24(%rip), %xmm0	# rMat, D.4514
	mulss	-96(%rbp), %xmm0	# az, D.4514
	movss	rMat+32(%rip), %xmm1	# rMat, D.4514
	mulss	-88(%rbp), %xmm1	# ax, D.4514
	subss	%xmm1, %xmm0	# D.4514, D.4514
	movss	-52(%rbp), %xmm1	# ey, tmp291
	addss	%xmm1, %xmm0	# tmp291, tmp290
	movss	%xmm0, -52(%rbp)	# tmp290, ey
	.loc 1 308 0
	movss	rMat+28(%rip), %xmm0	# rMat, D.4514
	mulss	-88(%rbp), %xmm0	# ax, D.4514
	movss	rMat+24(%rip), %xmm1	# rMat, D.4514
	mulss	-92(%rbp), %xmm1	# ay, D.4514
	subss	%xmm1, %xmm0	# D.4514, D.4514
	movss	-48(%rbp), %xmm1	# ez, tmp293
	addss	%xmm1, %xmm0	# tmp293, tmp292
	movss	%xmm0, -48(%rbp)	# tmp292, ez
.L33:
	.loc 1 312 0
	movq	imuRuntimeConfig(%rip), %rax	# imuRuntimeConfig, D.4515
	movss	4(%rax), %xmm0	# _113->dcm_ki, D.4514
	pxor	%xmm1, %xmm1	# tmp294
	ucomiss	%xmm1, %xmm0	# tmp294, D.4514
	jbe	.L44	#,
	.loc 1 314 0
	movss	.LC13(%rip), %xmm0	#, tmp295
	ucomiss	-44(%rbp), %xmm0	# spin_rate, tmp295
	jbe	.L39	#,
.LBB3:
	.loc 1 315 0
	movq	imuRuntimeConfig(%rip), %rax	# imuRuntimeConfig, D.4515
	movss	4(%rax), %xmm0	# _115->dcm_ki, tmp296
	movss	%xmm0, -20(%rbp)	# tmp296, dcmKiGain
	.loc 1 316 0
	movss	-20(%rbp), %xmm0	# dcmKiGain, tmp297
	mulss	-56(%rbp), %xmm0	# ex, D.4514
	mulss	-68(%rbp), %xmm0	# dt, D.4514
	movss	integralFBx.3976(%rip), %xmm1	# integralFBx, D.4514
	addss	%xmm1, %xmm0	# D.4514, D.4514
	movss	%xmm0, integralFBx.3976(%rip)	# D.4514, integralFBx
	.loc 1 317 0
	movss	-20(%rbp), %xmm0	# dcmKiGain, tmp298
	mulss	-52(%rbp), %xmm0	# ey, D.4514
	mulss	-68(%rbp), %xmm0	# dt, D.4514
	movss	integralFBy.3977(%rip), %xmm1	# integralFBy, D.4514
	addss	%xmm1, %xmm0	# D.4514, D.4514
	movss	%xmm0, integralFBy.3977(%rip)	# D.4514, integralFBy
	.loc 1 318 0
	movss	-20(%rbp), %xmm0	# dcmKiGain, tmp299
	mulss	-48(%rbp), %xmm0	# ez, D.4514
	mulss	-68(%rbp), %xmm0	# dt, D.4514
	movss	integralFBz.3978(%rip), %xmm1	# integralFBz, D.4514
	addss	%xmm1, %xmm0	# D.4514, D.4514
	movss	%xmm0, integralFBz.3978(%rip)	# D.4514, integralFBz
	jmp	.L39	#
.L44:
.LBE3:
	.loc 1 322 0
	pxor	%xmm0, %xmm0	# tmp300
	movss	%xmm0, integralFBx.3976(%rip)	# tmp300, integralFBx
	.loc 1 323 0
	pxor	%xmm0, %xmm0	# tmp301
	movss	%xmm0, integralFBy.3977(%rip)	# tmp301, integralFBy
	.loc 1 324 0
	pxor	%xmm0, %xmm0	# tmp302
	movss	%xmm0, integralFBz.3978(%rip)	# tmp302, integralFBz
.L39:
	.loc 1 328 0
	movq	imuRuntimeConfig(%rip), %rax	# imuRuntimeConfig, D.4515
	movss	8(%rax), %xmm3	# _136->dcm_kp, D.4514
	movss	%xmm3, -112(%rbp)	# D.4514, %sfp
	call	imuGetPGainScaleFactor	#
	mulss	-112(%rbp), %xmm0	# %sfp, tmp303
	movss	%xmm0, -16(%rbp)	# tmp303, dcmKpGain
	.loc 1 331 0
	movss	-16(%rbp), %xmm0	# dcmKpGain, tmp304
	mulss	-56(%rbp), %xmm0	# ex, D.4514
	movss	integralFBx.3976(%rip), %xmm1	# integralFBx, D.4514
	addss	%xmm1, %xmm0	# D.4514, D.4514
	movss	-72(%rbp), %xmm1	# gx, tmp306
	addss	%xmm1, %xmm0	# tmp306, tmp305
	movss	%xmm0, -72(%rbp)	# tmp305, gx
	.loc 1 332 0
	movss	-16(%rbp), %xmm0	# dcmKpGain, tmp307
	mulss	-52(%rbp), %xmm0	# ey, D.4514
	movss	integralFBy.3977(%rip), %xmm1	# integralFBy, D.4514
	addss	%xmm1, %xmm0	# D.4514, D.4514
	movss	-76(%rbp), %xmm1	# gy, tmp309
	addss	%xmm1, %xmm0	# tmp309, tmp308
	movss	%xmm0, -76(%rbp)	# tmp308, gy
	.loc 1 333 0
	movss	-16(%rbp), %xmm0	# dcmKpGain, tmp310
	mulss	-48(%rbp), %xmm0	# ez, D.4514
	movss	integralFBz.3978(%rip), %xmm1	# integralFBz, D.4514
	addss	%xmm1, %xmm0	# D.4514, D.4514
	movss	-80(%rbp), %xmm1	# gz, tmp312
	addss	%xmm1, %xmm0	# tmp312, tmp311
	movss	%xmm0, -80(%rbp)	# tmp311, gz
	.loc 1 336 0
	movss	-68(%rbp), %xmm1	# dt, tmp313
	movss	.LC4(%rip), %xmm0	#, tmp314
	mulss	%xmm1, %xmm0	# tmp313, D.4514
	movss	-72(%rbp), %xmm1	# gx, tmp316
	mulss	%xmm1, %xmm0	# tmp316, tmp315
	movss	%xmm0, -72(%rbp)	# tmp315, gx
	.loc 1 337 0
	movss	-68(%rbp), %xmm1	# dt, tmp317
	movss	.LC4(%rip), %xmm0	#, tmp318
	mulss	%xmm1, %xmm0	# tmp317, D.4514
	movss	-76(%rbp), %xmm1	# gy, tmp320
	mulss	%xmm1, %xmm0	# tmp320, tmp319
	movss	%xmm0, -76(%rbp)	# tmp319, gy
	.loc 1 338 0
	movss	-68(%rbp), %xmm1	# dt, tmp321
	movss	.LC4(%rip), %xmm0	#, tmp322
	mulss	%xmm1, %xmm0	# tmp321, D.4514
	movss	-80(%rbp), %xmm1	# gz, tmp324
	mulss	%xmm1, %xmm0	# tmp324, tmp323
	movss	%xmm0, -80(%rbp)	# tmp323, gz
	.loc 1 340 0
	movss	q0(%rip), %xmm0	# q0, tmp325
	movss	%xmm0, -12(%rbp)	# tmp325, qa
	.loc 1 341 0
	movss	q1(%rip), %xmm0	# q1, tmp326
	movss	%xmm0, -8(%rbp)	# tmp326, qb
	.loc 1 342 0
	movss	q2(%rip), %xmm0	# q2, tmp327
	movss	%xmm0, -4(%rbp)	# tmp327, qc
	.loc 1 343 0
	movss	-8(%rbp), %xmm1	# qb, tmp328
	movss	.LC5(%rip), %xmm0	#, tmp329
	xorps	%xmm1, %xmm0	# tmp328, D.4514
	mulss	-72(%rbp), %xmm0	# gx, D.4514
	movss	-4(%rbp), %xmm1	# qc, tmp330
	mulss	-76(%rbp), %xmm1	# gy, D.4514
	subss	%xmm1, %xmm0	# D.4514, D.4514
	movss	q3(%rip), %xmm1	# q3, D.4514
	mulss	-80(%rbp), %xmm1	# gz, D.4514
	subss	%xmm1, %xmm0	# D.4514, D.4514
	movss	q0(%rip), %xmm1	# q0, D.4514
	addss	%xmm1, %xmm0	# D.4514, D.4514
	movss	%xmm0, q0(%rip)	# D.4514, q0
	.loc 1 344 0
	movss	-12(%rbp), %xmm0	# qa, tmp331
	movaps	%xmm0, %xmm1	# tmp331, D.4514
	mulss	-72(%rbp), %xmm1	# gx, D.4514
	movss	-4(%rbp), %xmm0	# qc, tmp332
	mulss	-80(%rbp), %xmm0	# gz, D.4514
	addss	%xmm1, %xmm0	# D.4514, D.4514
	movss	q3(%rip), %xmm1	# q3, D.4514
	mulss	-76(%rbp), %xmm1	# gy, D.4514
	subss	%xmm1, %xmm0	# D.4514, D.4514
	movss	q1(%rip), %xmm1	# q1, D.4514
	addss	%xmm1, %xmm0	# D.4514, D.4514
	movss	%xmm0, q1(%rip)	# D.4514, q1
	.loc 1 345 0
	movss	-12(%rbp), %xmm0	# qa, tmp333
	mulss	-76(%rbp), %xmm0	# gy, D.4514
	movss	-8(%rbp), %xmm1	# qb, tmp334
	mulss	-80(%rbp), %xmm1	# gz, D.4514
	subss	%xmm1, %xmm0	# D.4514, D.4514
	movaps	%xmm0, %xmm1	# D.4514, D.4514
	movss	q3(%rip), %xmm0	# q3, D.4514
	mulss	-72(%rbp), %xmm0	# gx, D.4514
	addss	%xmm1, %xmm0	# D.4514, D.4514
	movss	q2(%rip), %xmm1	# q2, D.4514
	addss	%xmm1, %xmm0	# D.4514, D.4514
	movss	%xmm0, q2(%rip)	# D.4514, q2
	.loc 1 346 0
	movss	-12(%rbp), %xmm0	# qa, tmp335
	movaps	%xmm0, %xmm1	# tmp335, D.4514
	mulss	-80(%rbp), %xmm1	# gz, D.4514
	movss	-8(%rbp), %xmm0	# qb, tmp336
	mulss	-76(%rbp), %xmm0	# gy, D.4514
	addss	%xmm1, %xmm0	# D.4514, D.4514
	movss	-4(%rbp), %xmm1	# qc, tmp337
	mulss	-72(%rbp), %xmm1	# gx, D.4514
	subss	%xmm1, %xmm0	# D.4514, D.4514
	movss	q3(%rip), %xmm1	# q3, D.4514
	addss	%xmm1, %xmm0	# D.4514, D.4514
	movss	%xmm0, q3(%rip)	# D.4514, q3
	.loc 1 349 0
	movss	q0(%rip), %xmm1	# q0, D.4514
	movss	q0(%rip), %xmm0	# q0, D.4514
	mulss	%xmm0, %xmm1	# D.4514, D.4514
	movss	q1(%rip), %xmm2	# q1, D.4514
	movss	q1(%rip), %xmm0	# q1, D.4514
	mulss	%xmm2, %xmm0	# D.4514, D.4514
	addss	%xmm0, %xmm1	# D.4514, D.4514
	movss	q2(%rip), %xmm2	# q2, D.4514
	movss	q2(%rip), %xmm0	# q2, D.4514
	mulss	%xmm2, %xmm0	# D.4514, D.4514
	addss	%xmm0, %xmm1	# D.4514, D.4514
	movss	q3(%rip), %xmm2	# q3, D.4514
	movss	q3(%rip), %xmm0	# q3, D.4514
	mulss	%xmm2, %xmm0	# D.4514, D.4514
	addss	%xmm1, %xmm0	# D.4514, D.4514
	call	invSqrt	#
	movd	%xmm0, %eax	#, tmp338
	movl	%eax, -40(%rbp)	# tmp338, recipNorm
	.loc 1 350 0
	movss	q0(%rip), %xmm0	# q0, D.4514
	mulss	-40(%rbp), %xmm0	# recipNorm, D.4514
	movss	%xmm0, q0(%rip)	# D.4514, q0
	.loc 1 351 0
	movss	q1(%rip), %xmm0	# q1, D.4514
	mulss	-40(%rbp), %xmm0	# recipNorm, D.4514
	movss	%xmm0, q1(%rip)	# D.4514, q1
	.loc 1 352 0
	movss	q2(%rip), %xmm0	# q2, D.4514
	mulss	-40(%rbp), %xmm0	# recipNorm, D.4514
	movss	%xmm0, q2(%rip)	# D.4514, q2
	.loc 1 353 0
	movss	q3(%rip), %xmm0	# q3, D.4514
	mulss	-40(%rbp), %xmm0	# recipNorm, D.4514
	movss	%xmm0, q3(%rip)	# D.4514, q3
	.loc 1 356 0
	call	imuComputeRotationMatrix	#
	.loc 1 357 0
	nop
	leave
	.cfi_def_cfa 7, 8
	ret
	.cfi_endproc
.LFE29:
	.size	imuMahonyAHRSupdate, .-imuMahonyAHRSupdate
	.section	.text.imuUpdateEulerAngles,"ax",@progbits
	.type	imuUpdateEulerAngles, @function
imuUpdateEulerAngles:
.LFB30:
	.loc 1 360 0
	.cfi_startproc
	pushq	%rbp	#
	.cfi_def_cfa_offset 16
	.cfi_offset 6, -16
	movq	%rsp, %rbp	#,
	.cfi_def_cfa_register 6
	subq	$16, %rsp	#,
	.loc 1 362 0
	movss	rMat+32(%rip), %xmm0	# rMat, D.4516
	movl	rMat+28(%rip), %eax	# rMat, D.4516
	movaps	%xmm0, %xmm1	# D.4516,
	movl	%eax, -4(%rbp)	# D.4516, %sfp
	movss	-4(%rbp), %xmm0	# %sfp,
	call	atan2f	#
	movaps	%xmm0, %xmm1	#, D.4516
	movss	.LC2(%rip), %xmm0	#, tmp120
	mulss	%xmm1, %xmm0	# D.4516, D.4516
	call	lrintf	#
	movw	%ax, attitude(%rip)	# D.4518, attitude.values.roll
	.loc 1 363 0
	movss	rMat+24(%rip), %xmm1	# rMat, D.4516
	movss	.LC5(%rip), %xmm0	#, tmp121
	xorps	%xmm1, %xmm0	# D.4516, D.4516
	call	acosf	#
	movaps	%xmm0, %xmm1	#, D.4516
	movss	.LC14(%rip), %xmm0	#, tmp122
	subss	%xmm1, %xmm0	# D.4516, D.4516
	movss	.LC2(%rip), %xmm1	#, tmp123
	mulss	%xmm1, %xmm0	# tmp123, D.4516
	call	lrintf	#
	movw	%ax, attitude+2(%rip)	# D.4518, attitude.values.pitch
	.loc 1 364 0
	movss	rMat(%rip), %xmm0	# rMat, D.4516
	movl	rMat+12(%rip), %eax	# rMat, D.4516
	movaps	%xmm0, %xmm1	# D.4516,
	movl	%eax, -4(%rbp)	# D.4516, %sfp
	movss	-4(%rbp), %xmm0	# %sfp,
	call	atan2f	#
	movaps	%xmm0, %xmm1	#, D.4516
	movss	.LC5(%rip), %xmm0	#, tmp124
	xorps	%xmm1, %xmm0	# D.4516, D.4516
	movss	.LC2(%rip), %xmm1	#, tmp125
	mulss	%xmm1, %xmm0	# tmp125, D.4516
	movss	magneticDeclination(%rip), %xmm1	# magneticDeclination, D.4516
	addss	%xmm1, %xmm0	# D.4516, D.4516
	call	lrintf	#
	movw	%ax, attitude+4(%rip)	# D.4518, attitude.values.yaw
	.loc 1 366 0
	movzwl	attitude+4(%rip), %eax	# attitude.values.yaw, D.4518
	testw	%ax, %ax	# D.4518
	jns	.L46	#,
	.loc 1 367 0
	movzwl	attitude+4(%rip), %eax	# attitude.values.yaw, D.4518
	addw	$3600, %ax	#, D.4519
	movw	%ax, attitude+4(%rip)	# D.4518, attitude.values.yaw
.L46:
	.loc 1 370 0
	movss	rMat+32(%rip), %xmm0	# rMat, D.4516
	movss	smallAngleCosZ(%rip), %xmm1	# smallAngleCosZ, D.4516
	ucomiss	%xmm1, %xmm0	# D.4516, D.4516
	jbe	.L51	#,
	.loc 1 371 0
	movzbl	stateFlags(%rip), %eax	# stateFlags, D.4520
	orl	$8, %eax	#, D.4520
	movb	%al, stateFlags(%rip)	# D.4520, stateFlags
	.loc 1 375 0
	jmp	.L52	#
.L51:
	.loc 1 373 0
	movzbl	stateFlags(%rip), %eax	# stateFlags, D.4520
	andl	$-9, %eax	#, D.4520
	movb	%al, stateFlags(%rip)	# D.4520, stateFlags
.L52:
	.loc 1 375 0
	nop
	leave
	.cfi_def_cfa 7, 8
	ret
	.cfi_endproc
.LFE30:
	.size	imuUpdateEulerAngles, .-imuUpdateEulerAngles
	.section	.text.imuIsAircraftArmable,"ax",@progbits
	.globl	imuIsAircraftArmable
	.type	imuIsAircraftArmable, @function
imuIsAircraftArmable:
.LFB31:
	.loc 1 378 0
	.cfi_startproc
	pushq	%rbp	#
	.cfi_def_cfa_offset 16
	.cfi_offset 6, -16
	movq	%rsp, %rbp	#,
	.cfi_def_cfa_register 6
	subq	$32, %rsp	#,
	movl	%edi, %eax	# arming_angle, tmp92
	movb	%al, -20(%rbp)	# tmp92, arming_angle
	.loc 1 381 0
	movzbl	-20(%rbp), %eax	# arming_angle, D.4521
	movl	%eax, %edi	# D.4521,
	call	degreesToRadians	#
	call	cosf	#
	movd	%xmm0, %eax	#, tmp93
	movl	%eax, -4(%rbp)	# tmp93, armingAngleCosZ
	.loc 1 383 0
	movss	rMat+32(%rip), %xmm0	# rMat, D.4522
	ucomiss	-4(%rbp), %xmm0	# armingAngleCosZ, D.4522
	seta	%al	#, D.4523
	.loc 1 384 0
	leave
	.cfi_def_cfa 7, 8
	ret
	.cfi_endproc
.LFE31:
	.size	imuIsAircraftArmable, .-imuIsAircraftArmable
	.section	.text.imuIsAccelerometerHealthy,"ax",@progbits
	.type	imuIsAccelerometerHealthy, @function
imuIsAccelerometerHealthy:
.LFB32:
	.loc 1 387 0
	.cfi_startproc
	pushq	%rbp	#
	.cfi_def_cfa_offset 16
	.cfi_offset 6, -16
	movq	%rsp, %rbp	#,
	.cfi_def_cfa_register 6
	.loc 1 389 0
	movl	$0, -4(%rbp)	#, accMagnitude
	.loc 1 391 0
	movl	$0, -8(%rbp)	#, axis
	jmp	.L56	#
.L57:
	.loc 1 392 0 discriminator 3
	movl	-8(%rbp), %eax	# axis, tmp102
	cltq
	movzwl	accSmooth(%rax,%rax), %eax	# accSmooth, D.4525
	movswl	%ax, %edx	# D.4525, D.4524
	movl	-8(%rbp), %eax	# axis, tmp104
	cltq
	movzwl	accSmooth(%rax,%rax), %eax	# accSmooth, D.4525
	cwtl
	imull	%edx, %eax	# D.4524, D.4524
	addl	%eax, -4(%rbp)	# D.4524, accMagnitude
	.loc 1 391 0 discriminator 3
	addl	$1, -8(%rbp)	#, axis
.L56:
	.loc 1 391 0 is_stmt 0 discriminator 1
	cmpl	$2, -8(%rbp)	#, axis
	jle	.L57	#,
	.loc 1 395 0 is_stmt 1
	movl	-4(%rbp), %eax	# accMagnitude, tmp105
	imull	$100, %eax, %eax	#, tmp105, D.4524
	movzwl	acc+16(%rip), %edx	# acc.acc_1G, D.4526
	movzwl	%dx, %ecx	# D.4526, D.4524
	movzwl	acc+16(%rip), %edx	# acc.acc_1G, D.4526
	movzwl	%dx, %edx	# D.4526, D.4524
	movl	%edx, %esi	# D.4524, D.4524
	imull	%ecx, %esi	# D.4524, D.4524
	cltd
	idivl	%esi	# D.4524
	movl	%eax, -4(%rbp)	# tmp106, accMagnitude
	.loc 1 398 0
	cmpl	$81, -4(%rbp)	#, accMagnitude
	jle	.L58	#,
	.loc 1 398 0 is_stmt 0 discriminator 1
	cmpl	$120, -4(%rbp)	#, accMagnitude
	jg	.L58	#,
	.loc 1 398 0 discriminator 3
	movl	$1, %eax	#, D.4524
	jmp	.L59	#
.L58:
	.loc 1 398 0 discriminator 4
	movl	$0, %eax	#, D.4524
.L59:
	.loc 1 398 0 discriminator 6
	andl	$1, %eax	#, D.4527
	.loc 1 399 0 is_stmt 1 discriminator 6
	popq	%rbp	#
	.cfi_def_cfa 7, 8
	ret
	.cfi_endproc
.LFE32:
	.size	imuIsAccelerometerHealthy, .-imuIsAccelerometerHealthy
	.section	.text.isMagnetometerHealthy,"ax",@progbits
	.type	isMagnetometerHealthy, @function
isMagnetometerHealthy:
.LFB33:
	.loc 1 403 0
	.cfi_startproc
	pushq	%rbp	#
	.cfi_def_cfa_offset 16
	.cfi_offset 6, -16
	movq	%rsp, %rbp	#,
	.cfi_def_cfa_register 6
	.loc 1 404 0
	movl	magADC(%rip), %eax	# magADC, D.4528
	testl	%eax, %eax	# D.4528
	je	.L62	#,
	.loc 1 404 0 is_stmt 0 discriminator 1
	movl	magADC+4(%rip), %eax	# magADC, D.4528
	testl	%eax, %eax	# D.4528
	je	.L62	#,
	.loc 1 404 0 discriminator 3
	movl	magADC+8(%rip), %eax	# magADC, D.4528
	testl	%eax, %eax	# D.4528
	je	.L62	#,
	.loc 1 404 0 discriminator 5
	movl	$1, %eax	#, D.4528
	jmp	.L63	#
.L62:
	.loc 1 404 0 discriminator 6
	movl	$0, %eax	#, D.4528
.L63:
	.loc 1 404 0 discriminator 8
	andl	$1, %eax	#, D.4529
	.loc 1 405 0 is_stmt 1 discriminator 8
	popq	%rbp	#
	.cfi_def_cfa 7, 8
	ret
	.cfi_endproc
.LFE33:
	.size	isMagnetometerHealthy, .-isMagnetometerHealthy
	.section	.text.imuCalculateEstimatedAttitude,"ax",@progbits
	.type	imuCalculateEstimatedAttitude, @function
imuCalculateEstimatedAttitude:
.LFB34:
	.loc 1 409 0
	.cfi_startproc
	pushq	%rbp	#
	.cfi_def_cfa_offset 16
	.cfi_offset 6, -16
	movq	%rsp, %rbp	#,
	.cfi_def_cfa_register 6
	.loc 1 410 0
	nop
	.loc 1 459 0
	popq	%rbp	#
	.cfi_def_cfa 7, 8
	ret
	.cfi_endproc
.LFE34:
	.size	imuCalculateEstimatedAttitude, .-imuCalculateEstimatedAttitude
	.section	.text.imuUpdateAccelerometer,"ax",@progbits
	.globl	imuUpdateAccelerometer
	.type	imuUpdateAccelerometer, @function
imuUpdateAccelerometer:
.LFB35:
	.loc 1 462 0
	.cfi_startproc
	pushq	%rbp	#
	.cfi_def_cfa_offset 16
	.cfi_offset 6, -16
	movq	%rsp, %rbp	#,
	.cfi_def_cfa_register 6
	subq	$16, %rsp	#,
	movq	%rdi, -8(%rbp)	# accelerometerTrims, accelerometerTrims
	.loc 1 463 0
	movq	-8(%rbp), %rax	# accelerometerTrims, tmp87
	movq	%rax, %rdi	# tmp87,
	call	updateAccelerationReadings	#
	.loc 1 464 0
	movb	$1, isAccelUpdatedAtLeastOnce(%rip)	#, isAccelUpdatedAtLeastOnce
	.loc 1 465 0
	nop
	leave
	.cfi_def_cfa 7, 8
	ret
	.cfi_endproc
.LFE35:
	.size	imuUpdateAccelerometer, .-imuUpdateAccelerometer
	.section	.text.imuUpdateGyroAndAttitude,"ax",@progbits
	.globl	imuUpdateGyroAndAttitude
	.type	imuUpdateGyroAndAttitude, @function
imuUpdateGyroAndAttitude:
.LFB36:
	.loc 1 468 0
	.cfi_startproc
	pushq	%rbp	#
	.cfi_def_cfa_offset 16
	.cfi_offset 6, -16
	movq	%rsp, %rbp	#,
	.cfi_def_cfa_register 6
	.loc 1 469 0
	call	gyroUpdate	#
	.loc 1 471 0
	movl	$2, %edi	#,
	call	sensors	#
	testb	%al, %al	# D.4530
	je	.L69	#,
	.loc 1 471 0 is_stmt 0 discriminator 1
	movzbl	isAccelUpdatedAtLeastOnce(%rip), %eax	# isAccelUpdatedAtLeastOnce, D.4530
	testb	%al, %al	# D.4530
	je	.L69	#,
	.loc 1 472 0 is_stmt 1
	call	imuCalculateEstimatedAttitude	#
	jmp	.L70	#
.L69:
	.loc 1 474 0
	movl	$0, accADC(%rip)	#, accADC
	.loc 1 475 0
	movl	$0, accADC+4(%rip)	#, accADC
	.loc 1 476 0
	movl	$0, accADC+8(%rip)	#, accADC
.L70:
	.loc 1 478 0
	nop
	popq	%rbp	#
	.cfi_def_cfa 7, 8
	ret
	.cfi_endproc
.LFE36:
	.size	imuUpdateGyroAndAttitude, .-imuUpdateGyroAndAttitude
	.section	.text.getCosTiltAngle,"ax",@progbits
	.globl	getCosTiltAngle
	.type	getCosTiltAngle, @function
getCosTiltAngle:
.LFB37:
	.loc 1 481 0
	.cfi_startproc
	pushq	%rbp	#
	.cfi_def_cfa_offset 16
	.cfi_offset 6, -16
	movq	%rsp, %rbp	#,
	.cfi_def_cfa_register 6
	.loc 1 482 0
	movss	rMat+32(%rip), %xmm0	# rMat, D.4531
	.loc 1 483 0
	popq	%rbp	#
	.cfi_def_cfa 7, 8
	ret
	.cfi_endproc
.LFE37:
	.size	getCosTiltAngle, .-getCosTiltAngle
	.section	.text.calculateThrottleAngleCorrection,"ax",@progbits
	.globl	calculateThrottleAngleCorrection
	.type	calculateThrottleAngleCorrection, @function
calculateThrottleAngleCorrection:
.LFB38:
	.loc 1 486 0
	.cfi_startproc
	pushq	%rbp	#
	.cfi_def_cfa_offset 16
	.cfi_offset 6, -16
	movq	%rsp, %rbp	#,
	.cfi_def_cfa_register 6
	subq	$32, %rsp	#,
	movl	%edi, %eax	# throttle_correction_value, tmp102
	movb	%al, -20(%rbp)	# tmp102, throttle_correction_value
	.loc 1 492 0
	movss	rMat+32(%rip), %xmm1	# rMat, D.4533
	movss	.LC15(%rip), %xmm0	#, tmp103
	ucomiss	%xmm1, %xmm0	# D.4533, tmp103
	jb	.L79	#,
	.loc 1 493 0
	movl	$0, %eax	#, D.4532
	jmp	.L76	#
.L79:
	.loc 1 495 0
	movl	rMat+32(%rip), %eax	# rMat, D.4533
	movl	%eax, -24(%rbp)	# D.4533, %sfp
	movss	-24(%rbp), %xmm0	# %sfp,
	call	acosf	#
	movaps	%xmm0, %xmm1	#, D.4533
	movss	throttleAngleScale(%rip), %xmm0	# throttleAngleScale, D.4533
	mulss	%xmm1, %xmm0	# D.4533, D.4533
	call	lrintf	#
	movl	%eax, -4(%rbp)	# D.4534, angle
	.loc 1 496 0
	cmpl	$900, -4(%rbp)	#, angle
	jle	.L77	#,
	.loc 1 497 0
	movl	$900, -4(%rbp)	#, angle
.L77:
	.loc 1 498 0
	movzbl	-20(%rbp), %eax	# throttle_correction_value, D.4535
	pxor	%xmm2, %xmm2	# D.4533
	cvtsi2ss	%eax, %xmm2	# D.4535, D.4533
	movss	%xmm2, -24(%rbp)	# D.4533, %sfp
	pxor	%xmm0, %xmm0	# D.4533
	cvtsi2ss	-4(%rbp), %xmm0	# angle, D.4533
	movss	.LC16(%rip), %xmm1	#, tmp104
	divss	%xmm1, %xmm0	# tmp104, D.4533
	call	sinf	#
	mulss	-24(%rbp), %xmm0	# %sfp, D.4533
	call	lrintf	#
.L76:
	.loc 1 499 0
	leave
	.cfi_def_cfa 7, 8
	ret
	.cfi_endproc
.LFE38:
	.size	calculateThrottleAngleCorrection, .-calculateThrottleAngleCorrection
	.section	.bss.accZoffset.3947,"aw",@nobits
	.align 4
	.type	accZoffset.3947, @object
	.size	accZoffset.3947, 4
accZoffset.3947:
	.zero	4
	.section	.bss.accz_smooth.3948,"aw",@nobits
	.align 4
	.type	accz_smooth.3948, @object
	.size	accz_smooth.3948, 4
accz_smooth.3948:
	.zero	4
	.section	.bss.integralFBx.3976,"aw",@nobits
	.align 4
	.type	integralFBx.3976, @object
	.size	integralFBx.3976, 4
integralFBx.3976:
	.zero	4
	.section	.bss.integralFBy.3977,"aw",@nobits
	.align 4
	.type	integralFBy.3977, @object
	.size	integralFBy.3977, 4
integralFBy.3977:
	.zero	4
	.section	.bss.integralFBz.3978,"aw",@nobits
	.align 4
	.type	integralFBz.3978, @object
	.size	integralFBz.3978, 4
integralFBz.3978:
	.zero	4
	.section	.rodata
	.align 4
.LC0:
	.long	1065353216
	.align 4
.LC1:
	.long	1147207680
	.align 4
.LC2:
	.long	1141849420
	.align 4
.LC3:
	.long	1078530011
	.align 4
.LC4:
	.long	1056964608
	.align 16
.LC5:
	.long	2147483648
	.long	0
	.long	0
	.long	0
	.align 4
.LC6:
	.long	897988541
	.align 4
.LC7:
	.long	1092616192
	.align 4
.LC9:
	.long	1086918619
	.align 4
.LC10:
	.long	3226013659
	.align 4
.LC11:
	.long	1073741824
	.align 4
.LC12:
	.long	1008981770
	.align 4
.LC13:
	.long	1051900098
	.align 4
.LC14:
	.long	1070141403
	.align 4
.LC15:
	.long	1014350479
	.align 4
.LC16:
	.long	1152431855
	.text
.Letext0:
	.file 2 "/usr/include/stdint.h"
	.file 3 "./src/main/common/maths.h"
	.file 4 "./src/main/common/axis.h"
	.file 5 "./src/main/config/parameter_group.h"
	.file 6 "./src/main/config/profile.h"
	.file 7 "./src/main/drivers/sensor.h"
	.file 8 "./src/main/drivers/accgyro.h"
	.file 9 "./src/main/sensors/sensors.h"
	.file 10 "./src/main/sensors/gyro.h"
	.file 11 "./src/main/sensors/compass.h"
	.file 12 "./src/main/sensors/acceleration.h"
	.file 13 "./src/main/flight/mixer.h"
	.file 14 "./src/main/flight/pid.h"
	.file 15 "./src/main/flight/imu.h"
	.file 16 "./src/main/io/gps.h"
	.file 17 "./src/main/fc/runtime_config.h"
	.file 18 "./src/main/target/edison/target.h"
	.section	.note.GNU-stack,"",@progbits
