	.file	"msp_server_fc.c"
# GNU C99 (Ubuntu 5.4.1-2ubuntu1~16.04) version 5.4.1 20160904 (x86_64-linux-gnu)
#	compiled by GNU C version 5.4.1 20160904, GMP version 6.1.0, MPFR version 3.1.4, MPC version 1.0.3
# GGC heuristics: --param ggc-min-expand=100 --param ggc-min-heapsize=131072
# options passed:  -fpreprocessed msp_server_fc.i -mtune=generic
# -march=x86-64 -g -std=gnu99 -ffunction-sections -fdata-sections
# -fverbose-asm -ffat-lto-objects -fstack-protector-strong -Wformat
# -Wformat-security
# options enabled:  -faggressive-loop-optimizations
# -fasynchronous-unwind-tables -fauto-inc-dec -fchkp-check-incomplete-type
# -fchkp-check-read -fchkp-check-write -fchkp-instrument-calls
# -fchkp-narrow-bounds -fchkp-optimize -fchkp-store-bounds
# -fchkp-use-static-bounds -fchkp-use-static-const-bounds
# -fchkp-use-wrappers -fcommon -fdata-sections -fdelete-null-pointer-checks
# -fdwarf2-cfi-asm -fearly-inlining -feliminate-unused-debug-types
# -ffunction-cse -ffunction-sections -fgcse-lm -fgnu-runtime -fgnu-unique
# -fident -finline-atomics -fira-hoist-pressure -fira-share-save-slots
# -fira-share-spill-slots -fivopts -fkeep-static-consts
# -fleading-underscore -flifetime-dse -flto-odr-type-merging -fmath-errno
# -fmerge-debug-strings -fpeephole -fprefetch-loop-arrays
# -freg-struct-return -fsched-critical-path-heuristic
# -fsched-dep-count-heuristic -fsched-group-heuristic -fsched-interblock
# -fsched-last-insn-heuristic -fsched-rank-heuristic -fsched-spec
# -fsched-spec-insn-heuristic -fsched-stalled-insns-dep -fschedule-fusion
# -fsemantic-interposition -fshow-column -fsigned-zeros
# -fsplit-ivs-in-unroller -fstack-protector-strong -fstdarg-opt
# -fstrict-volatile-bitfields -fsync-libcalls -ftrapping-math
# -ftree-coalesce-vars -ftree-cselim -ftree-forwprop -ftree-loop-if-convert
# -ftree-loop-im -ftree-loop-ivcanon -ftree-loop-optimize
# -ftree-parallelize-loops= -ftree-phiprop -ftree-reassoc -ftree-scev-cprop
# -funit-at-a-time -funwind-tables -fverbose-asm -fzero-initialized-in-bss
# -m128bit-long-double -m64 -m80387 -malign-stringops
# -mavx256-split-unaligned-load -mavx256-split-unaligned-store
# -mfancy-math-387 -mfp-ret-in-387 -mfxsr -mglibc -mieee-fp
# -mlong-double-80 -mmmx -mno-sse4 -mpush-args -mred-zone -msse -msse2
# -mtls-direct-seg-refs -mvzeroupper

	.text
.Ltext0:
	.comm	U_ID_0,4,4
	.comm	U_ID_1,4,4
	.comm	U_ID_2,4,4
	.comm	__pg_registry_start,8,8
	.comm	__pg_registry_end,8,8
	.comm	__pg_resetdata_start,8,8
	.comm	__pg_resetdata_end,8,8
	.comm	featureConfig_System,4,4
	.comm	profileSelection_System,1,1
	.comm	rxConfig_System,26,16
	.comm	armingConfig_System,4,1
	.comm	motorAndServoConfig_System,12,8
	.comm	gpsConfig_System,16,16
	.comm	serialConfig_System,28,16
	.comm	specialColors_System,11,8
	.comm	transponderConfig_System,6,1
	.comm	telemetryConfig_System,3,1
	.comm	boardAlignment_System,6,1
	.comm	sensorSelectionConfig_System,3,1
	.comm	sensorAlignmentConfig_System,12,8
	.comm	sensorTrims_System,12,8
	.comm	batteryConfig_System,8,8
	.comm	gyroConfig_System,4,2
	.comm	mixerConfig_System,6,2
	.section	.text.mixerConfig,"ax",@progbits
	.type	mixerConfig, @function
mixerConfig:
.LFB59:
	.file 1 "./src/main/flight/mixer.h"
	.loc 1 92 0
	.cfi_startproc
	pushq	%rbp	#
	.cfi_def_cfa_offset 16
	.cfi_offset 6, -16
	movq	%rsp, %rbp	#,
	.cfi_def_cfa_register 6
	.loc 1 92 0
	movl	$mixerConfig_System, %eax	#, D.7007
	popq	%rbp	#
	.cfi_def_cfa 7, 8
	ret
	.cfi_endproc
.LFE59:
	.size	mixerConfig, .-mixerConfig
	.comm	motor3DConfig_System,6,2
	.comm	inputSource_e,4,4
	.comm	imuConfig_System,12,8
	.comm	failsafeConfig_System,8,8
	.comm	airplaneConfig_System,1,1
	.comm	blackboxConfig_System,3,1
	.comm	mspServerConfig_System,1,1
	.section	.bss.enabledSensors,"aw",@nobits
	.align 4
	.type	enabledSensors, @object
	.size	enabledSensors, 4
enabledSensors:
	.zero	4
	.section	.text.rcModeIsActive,"ax",@progbits
	.globl	rcModeIsActive
	.type	rcModeIsActive, @function
rcModeIsActive:
.LFB72:
	.file 2 "./src/main/fc/msp_server_fc.h"
	.loc 2 23 0
	.cfi_startproc
	pushq	%rbp	#
	.cfi_def_cfa_offset 16
	.cfi_offset 6, -16
	movq	%rsp, %rbp	#,
	.cfi_def_cfa_register 6
	movl	%edi, -4(%rbp)	# modeId, modeId
	.loc 2 24 0
	movl	$0, %eax	#, D.7008
	.loc 2 25 0
	popq	%rbp	#
	.cfi_def_cfa 7, 8
	ret
	.cfi_endproc
.LFE72:
	.size	rcModeIsActive, .-rcModeIsActive
	.section	.rodata
.LC0:
	.string	"CLFL"
	.section	.rodata.flightControllerIdentifier,"a",@progbits
	.align 8
	.type	flightControllerIdentifier, @object
	.size	flightControllerIdentifier, 8
flightControllerIdentifier:
	.quad	.LC0
	.section	.rodata
.LC1:
	.string	"EDISON"
	.section	.rodata.boardIdentifier,"a",@progbits
	.align 8
	.type	boardIdentifier, @object
	.size	boardIdentifier, 8
boardIdentifier:
	.quad	.LC1
	.section	.rodata
.LC2:
	.string	"ARM"
.LC3:
	.string	"ANGLE"
.LC4:
	.string	"HORIZON"
.LC5:
	.string	"BARO"
.LC6:
	.string	"MAG"
.LC7:
	.string	"HEADFREE"
.LC8:
	.string	"HEADADJ"
.LC9:
	.string	"CAMSTAB"
.LC10:
	.string	"CAMTRIG"
.LC11:
	.string	"GPS HOME"
.LC12:
	.string	"GPS HOLD"
.LC13:
	.string	"PASSTHRU"
.LC14:
	.string	"BEEPER"
.LC15:
	.string	"LEDMAX"
.LC16:
	.string	"LEDLOW"
.LC17:
	.string	"LLIGHTS"
.LC18:
	.string	"CALIB"
.LC19:
	.string	"GOVERNOR"
.LC20:
	.string	"OSD SW"
.LC21:
	.string	"TELEMETRY"
.LC22:
	.string	"GTUNE"
.LC23:
	.string	"SONAR"
.LC24:
	.string	"SERVO1"
.LC25:
	.string	"SERVO2"
.LC26:
	.string	"SERVO3"
.LC27:
	.string	"BLACKBOX"
.LC28:
	.string	"FAILSAFE"
.LC29:
	.string	"AIR MODE"
	.section	.rodata.boxes,"a",@progbits
	.align 32
	.type	boxes, @object
	.size	boxes, 448
boxes:
# boxName:
	.quad	.LC2
# boxId:
	.byte	0
# permanentId:
	.byte	0
	.zero	6
# boxName:
	.quad	.LC3
# boxId:
	.byte	1
# permanentId:
	.byte	1
	.zero	6
# boxName:
	.quad	.LC4
# boxId:
	.byte	2
# permanentId:
	.byte	2
	.zero	6
# boxName:
	.quad	.LC5
# boxId:
	.byte	3
# permanentId:
	.byte	3
	.zero	6
# boxName:
	.quad	.LC6
# boxId:
	.byte	4
# permanentId:
	.byte	5
	.zero	6
# boxName:
	.quad	.LC7
# boxId:
	.byte	5
# permanentId:
	.byte	6
	.zero	6
# boxName:
	.quad	.LC8
# boxId:
	.byte	6
# permanentId:
	.byte	7
	.zero	6
# boxName:
	.quad	.LC9
# boxId:
	.byte	7
# permanentId:
	.byte	8
	.zero	6
# boxName:
	.quad	.LC10
# boxId:
	.byte	8
# permanentId:
	.byte	9
	.zero	6
# boxName:
	.quad	.LC11
# boxId:
	.byte	9
# permanentId:
	.byte	10
	.zero	6
# boxName:
	.quad	.LC12
# boxId:
	.byte	10
# permanentId:
	.byte	11
	.zero	6
# boxName:
	.quad	.LC13
# boxId:
	.byte	11
# permanentId:
	.byte	12
	.zero	6
# boxName:
	.quad	.LC14
# boxId:
	.byte	12
# permanentId:
	.byte	13
	.zero	6
# boxName:
	.quad	.LC15
# boxId:
	.byte	13
# permanentId:
	.byte	14
	.zero	6
# boxName:
	.quad	.LC16
# boxId:
	.byte	14
# permanentId:
	.byte	15
	.zero	6
# boxName:
	.quad	.LC17
# boxId:
	.byte	15
# permanentId:
	.byte	16
	.zero	6
# boxName:
	.quad	.LC18
# boxId:
	.byte	16
# permanentId:
	.byte	17
	.zero	6
# boxName:
	.quad	.LC19
# boxId:
	.byte	17
# permanentId:
	.byte	18
	.zero	6
# boxName:
	.quad	.LC20
# boxId:
	.byte	18
# permanentId:
	.byte	19
	.zero	6
# boxName:
	.quad	.LC21
# boxId:
	.byte	19
# permanentId:
	.byte	20
	.zero	6
# boxName:
	.quad	.LC22
# boxId:
	.byte	20
# permanentId:
	.byte	21
	.zero	6
# boxName:
	.quad	.LC23
# boxId:
	.byte	21
# permanentId:
	.byte	22
	.zero	6
# boxName:
	.quad	.LC24
# boxId:
	.byte	22
# permanentId:
	.byte	23
	.zero	6
# boxName:
	.quad	.LC25
# boxId:
	.byte	23
# permanentId:
	.byte	24
	.zero	6
# boxName:
	.quad	.LC26
# boxId:
	.byte	24
# permanentId:
	.byte	25
	.zero	6
# boxName:
	.quad	.LC27
# boxId:
	.byte	25
# permanentId:
	.byte	26
	.zero	6
# boxName:
	.quad	.LC28
# boxId:
	.byte	26
# permanentId:
	.byte	27
	.zero	6
# boxName:
	.quad	.LC29
# boxId:
	.byte	27
# permanentId:
	.byte	28
	.zero	6
	.section	.bss.activeBoxIds,"aw",@nobits
	.align 4
	.type	activeBoxIds, @object
	.size	activeBoxIds, 4
activeBoxIds:
	.zero	4
	.section	.rodata.pidnames,"a",@progbits
	.align 32
	.type	pidnames, @object
	.size	pidnames, 48
pidnames:
	.string	"ROLL;PITCH;YAW;ALT;Pos;PosR;NavR;LEVEL;MAG;VEL;"
	.section	.text.findBoxByBoxId,"ax",@progbits
	.type	findBoxByBoxId, @function
findBoxByBoxId:
.LFB73:
	.file 3 "src/main/fc/msp_server_fc.c"
	.loc 3 222 0
	.cfi_startproc
	pushq	%rbp	#
	.cfi_def_cfa_offset 16
	.cfi_offset 6, -16
	movq	%rsp, %rbp	#,
	.cfi_def_cfa_register 6
	movl	%edi, %eax	# boxId, tmp90
	movb	%al, -20(%rbp)	# tmp90, boxId
.LBB2:
	.loc 3 223 0
	movl	$0, -12(%rbp)	#, i
	jmp	.L6	#
.L9:
.LBB3:
	.loc 3 224 0
	movl	-12(%rbp), %eax	# i, tmp91
	salq	$4, %rax	#, tmp92
	addq	$boxes, %rax	#, tmp93
	movq	%rax, -8(%rbp)	# tmp93, candidate
	.loc 3 225 0
	movq	-8(%rbp), %rax	# candidate, tmp94
	movzbl	8(%rax), %eax	# candidate_4->boxId, D.7040
	cmpb	-20(%rbp), %al	# boxId, D.7040
	jne	.L7	#,
	.loc 3 226 0
	movq	-8(%rbp), %rax	# candidate, D.7039
	jmp	.L8	#
.L7:
.LBE3:
	.loc 3 223 0 discriminator 2
	addl	$1, -12(%rbp)	#, i
.L6:
	.loc 3 223 0 is_stmt 0 discriminator 1
	cmpl	$27, -12(%rbp)	#, i
	jbe	.L9	#,
.LBE2:
	.loc 3 229 0 is_stmt 1
	movl	$0, %eax	#, D.7039
.L8:
	.loc 3 230 0
	popq	%rbp	#
	.cfi_def_cfa 7, 8
	ret
	.cfi_endproc
.LFE73:
	.size	findBoxByBoxId, .-findBoxByBoxId
	.section	.text.findBoxByPermenantId,"ax",@progbits
	.type	findBoxByPermenantId, @function
findBoxByPermenantId:
.LFB74:
	.loc 3 233 0
	.cfi_startproc
	pushq	%rbp	#
	.cfi_def_cfa_offset 16
	.cfi_offset 6, -16
	movq	%rsp, %rbp	#,
	.cfi_def_cfa_register 6
	movl	%edi, %eax	# permanentId, tmp90
	movb	%al, -20(%rbp)	# tmp90, permanentId
.LBB4:
	.loc 3 234 0
	movl	$0, -12(%rbp)	#, i
	jmp	.L11	#
.L14:
.LBB5:
	.loc 3 235 0
	movl	-12(%rbp), %eax	# i, tmp91
	salq	$4, %rax	#, tmp92
	addq	$boxes, %rax	#, tmp93
	movq	%rax, -8(%rbp)	# tmp93, candidate
	.loc 3 236 0
	movq	-8(%rbp), %rax	# candidate, tmp94
	movzbl	9(%rax), %eax	# candidate_4->permanentId, D.7042
	cmpb	-20(%rbp), %al	# permanentId, D.7042
	jne	.L12	#,
	.loc 3 237 0
	movq	-8(%rbp), %rax	# candidate, D.7041
	jmp	.L13	#
.L12:
.LBE5:
	.loc 3 234 0 discriminator 2
	addl	$1, -12(%rbp)	#, i
.L11:
	.loc 3 234 0 is_stmt 0 discriminator 1
	cmpl	$27, -12(%rbp)	#, i
	jbe	.L14	#,
.LBE4:
	.loc 3 240 0 is_stmt 1
	movl	$0, %eax	#, D.7041
.L13:
	.loc 3 241 0
	popq	%rbp	#
	.cfi_def_cfa 7, 8
	ret
	.cfi_endproc
.LFE74:
	.size	findBoxByPermenantId, .-findBoxByPermenantId
	.section	.text.serializeBoxNamesReply,"ax",@progbits
	.type	serializeBoxNamesReply, @function
serializeBoxNamesReply:
.LFB75:
	.loc 3 244 0
	.cfi_startproc
	pushq	%rbp	#
	.cfi_def_cfa_offset 16
	.cfi_offset 6, -16
	movq	%rsp, %rbp	#,
	.cfi_def_cfa_register 6
	subq	$48, %rsp	#,
	movq	%rdi, -40(%rbp)	# reply, reply
	.loc 3 245 0
	movq	-40(%rbp), %rax	# reply, tmp94
	movq	%rax, -16(%rbp)	# tmp94, dst
.LBB6:
	.loc 3 246 0
	movl	$0, -20(%rbp)	#, i
	jmp	.L16	#
.L19:
.LBB7:
	.loc 3 247 0
	movl	-20(%rbp), %eax	# i, tmp95
	movl	$1, %edx	#, tmp96
	movl	%eax, %ecx	# tmp95, tmp103
	sall	%cl, %edx	# tmp103, D.7043
	movl	%edx, %eax	# D.7043, D.7043
	movl	%eax, %edx	# D.7043, D.7044
	movl	activeBoxIds(%rip), %eax	# activeBoxIds, D.7044
	andl	%edx, %eax	# D.7044, D.7044
	testl	%eax, %eax	# D.7044
	je	.L20	#,
	.loc 3 249 0
	movl	-20(%rbp), %eax	# i, tmp97
	movzbl	%al, %eax	# D.7045, D.7043
	movl	%eax, %edi	# D.7043,
	call	findBoxByBoxId	#
	movq	%rax, -8(%rbp)	# tmp98, box
	.loc 3 250 0
	movq	-8(%rbp), %rax	# box, tmp99
	movq	(%rax), %rdx	# box_15->boxName, D.7046
	movq	-16(%rbp), %rax	# dst, tmp100
	movq	%rdx, %rsi	# D.7046,
	movq	%rax, %rdi	# tmp100,
	call	sbufWriteString	#
	.loc 3 251 0
	movq	-16(%rbp), %rax	# dst, tmp101
	movl	$59, %esi	#,
	movq	%rax, %rdi	# tmp101,
	call	sbufWriteU8	#
	jmp	.L18	#
.L20:
	.loc 3 248 0
	nop
.L18:
.LBE7:
	.loc 3 246 0 discriminator 2
	addl	$1, -20(%rbp)	#, i
.L16:
	.loc 3 246 0 is_stmt 0 discriminator 1
	cmpl	$27, -20(%rbp)	#, i
	jle	.L19	#,
.LBE6:
	.loc 3 253 0 is_stmt 1
	nop
	leave
	.cfi_def_cfa 7, 8
	ret
	.cfi_endproc
.LFE75:
	.size	serializeBoxNamesReply, .-serializeBoxNamesReply
	.section	.text.serializeBoxIdsReply,"ax",@progbits
	.type	serializeBoxIdsReply, @function
serializeBoxIdsReply:
.LFB76:
	.loc 3 256 0
	.cfi_startproc
	pushq	%rbp	#
	.cfi_def_cfa_offset 16
	.cfi_offset 6, -16
	movq	%rsp, %rbp	#,
	.cfi_def_cfa_register 6
	subq	$48, %rsp	#,
	movq	%rdi, -40(%rbp)	# reply, reply
	.loc 3 257 0
	movq	-40(%rbp), %rax	# reply, tmp95
	movq	%rax, -16(%rbp)	# tmp95, dst
.LBB8:
	.loc 3 258 0
	movl	$0, -20(%rbp)	#, i
	jmp	.L22	#
.L25:
.LBB9:
	.loc 3 259 0
	movl	-20(%rbp), %eax	# i, tmp96
	movl	$1, %edx	#, tmp97
	movl	%eax, %ecx	# tmp96, tmp103
	sall	%cl, %edx	# tmp103, D.7047
	movl	%edx, %eax	# D.7047, D.7047
	movl	%eax, %edx	# D.7047, D.7048
	movl	activeBoxIds(%rip), %eax	# activeBoxIds, D.7048
	andl	%edx, %eax	# D.7048, D.7048
	testl	%eax, %eax	# D.7048
	je	.L26	#,
	.loc 3 261 0
	movl	-20(%rbp), %eax	# i, tmp98
	movzbl	%al, %eax	# D.7049, D.7047
	movl	%eax, %edi	# D.7047,
	call	findBoxByBoxId	#
	movq	%rax, -8(%rbp)	# tmp99, box
	.loc 3 262 0
	movq	-8(%rbp), %rax	# box, tmp100
	movzbl	9(%rax), %eax	# box_15->permanentId, D.7049
	movzbl	%al, %edx	# D.7049, D.7047
	movq	-16(%rbp), %rax	# dst, tmp101
	movl	%edx, %esi	# D.7047,
	movq	%rax, %rdi	# tmp101,
	call	sbufWriteU8	#
	jmp	.L24	#
.L26:
	.loc 3 260 0
	nop
.L24:
.LBE9:
	.loc 3 258 0 discriminator 2
	addl	$1, -20(%rbp)	#, i
.L22:
	.loc 3 258 0 is_stmt 0 discriminator 1
	cmpl	$27, -20(%rbp)	#, i
	jle	.L25	#,
.LBE8:
	.loc 3 264 0 is_stmt 1
	nop
	leave
	.cfi_def_cfa 7, 8
	ret
	.cfi_endproc
.LFE76:
	.size	serializeBoxIdsReply, .-serializeBoxIdsReply
	.section	.text.initActiveBoxIds,"ax",@progbits
	.type	initActiveBoxIds, @function
initActiveBoxIds:
.LFB77:
	.loc 3 267 0
	.cfi_startproc
	pushq	%rbp	#
	.cfi_def_cfa_offset 16
	.cfi_offset 6, -16
	movq	%rsp, %rbp	#,
	.cfi_def_cfa_register 6
	subq	$16, %rsp	#,
	.loc 3 268 0
	movl	$0, -8(%rbp)	#, ena
	.loc 3 270 0
	orl	$1, -8(%rbp)	#, ena
	.loc 3 273 0
	movl	$2, %edi	#,
	call	sensors	#
	testb	%al, %al	# D.7050
	je	.L28	#,
	.loc 3 274 0
	orl	$2, -8(%rbp)	#, ena
	.loc 3 275 0
	orl	$4, -8(%rbp)	#, ena
.L28:
	.loc 3 284 0
	orl	$134217728, -8(%rbp)	#, ena
	.loc 3 286 0
	movl	$2, %edi	#,
	call	sensors	#
	testb	%al, %al	# D.7050
	jne	.L29	#,
	.loc 3 286 0 is_stmt 0 discriminator 1
	movl	$8, %edi	#,
	call	sensors	#
	testb	%al, %al	# D.7050
	je	.L30	#,
.L29:
	.loc 3 287 0 is_stmt 1
	orl	$16, -8(%rbp)	#, ena
	.loc 3 288 0
	orl	$32, -8(%rbp)	#, ena
	.loc 3 289 0
	orl	$64, -8(%rbp)	#, ena
.L30:
	.loc 3 293 0
	movl	$32, %edi	#,
	call	feature	#
	testb	%al, %al	# D.7050
	je	.L31	#,
	.loc 3 294 0
	orl	$128, -8(%rbp)	#, ena
.L31:
	.loc 3 303 0
	call	mixerConfig	#
	movzbl	(%rax), %eax	# _36->mixerMode, D.7052
	cmpb	$8, %al	#, D.7052
	je	.L32	#,
	.loc 3 304 0
	call	mixerConfig	#
	movzbl	(%rax), %eax	# _39->mixerMode, D.7052
	cmpb	$14, %al	#, D.7052
	je	.L32	#,
	.loc 3 305 0
	call	mixerConfig	#
	movzbl	(%rax), %eax	# _42->mixerMode, D.7052
	cmpb	$24, %al	#, D.7052
	jne	.L33	#,
.L32:
	.loc 3 306 0
	orl	$2048, -8(%rbp)	#, ena
.L33:
	.loc 3 308 0
	orl	$4096, -8(%rbp)	#, ena
	.loc 3 317 0
	movl	$4, %edi	#,
	call	feature	#
	testb	%al, %al	# D.7050
	je	.L34	#,
	.loc 3 318 0
	orl	$65536, -8(%rbp)	#, ena
.L34:
	.loc 3 320 0
	orl	$262144, -8(%rbp)	#, ena
	.loc 3 328 0
	movl	$512, %edi	#,
	call	feature	#
	testb	%al, %al	# D.7050
	je	.L35	#,
	.loc 3 329 0
	orl	$2097152, -8(%rbp)	#, ena
.L35:
	.loc 3 347 0
	movl	$256, %edi	#,
	call	feature	#
	testb	%al, %al	# D.7050
	je	.L36	#,
	.loc 3 348 0
	orl	$67108864, -8(%rbp)	#, ena
.L36:
	.loc 3 352 0
	orl	$1048576, -8(%rbp)	#, ena
.LBB10:
	.loc 3 356 0
	movl	$0, -4(%rbp)	#, boxId
	jmp	.L37	#
.L39:
	.loc 3 357 0
	movl	-4(%rbp), %eax	# boxId, tmp109
	movl	$1, %edx	#, tmp110
	movl	%eax, %ecx	# tmp109, tmp116
	sall	%cl, %edx	# tmp116, D.7053
	movl	%edx, %eax	# D.7053, D.7053
	andl	-8(%rbp), %eax	# ena, D.7054
	testl	%eax, %eax	# D.7054
	je	.L38	#,
	.loc 3 358 0
	movl	-4(%rbp), %eax	# boxId, tmp111
	movzbl	%al, %eax	# D.7052, D.7053
	movl	%eax, %edi	# D.7053,
	call	findBoxByBoxId	#
	testq	%rax, %rax	# D.7055
	jne	.L38	#,
	.loc 3 359 0
	movl	-4(%rbp), %eax	# boxId, tmp112
	movl	$1, %edx	#, tmp113
	movl	%eax, %ecx	# tmp112, tmp118
	sall	%cl, %edx	# tmp118, D.7053
	movl	%edx, %eax	# D.7053, D.7053
	notl	%eax	# D.7053
	andl	%eax, -8(%rbp)	# D.7054, ena
.L38:
	.loc 3 356 0 discriminator 2
	addl	$1, -4(%rbp)	#, boxId
.L37:
	.loc 3 356 0 is_stmt 0 discriminator 1
	cmpl	$27, -4(%rbp)	#, boxId
	jbe	.L39	#,
.LBE10:
	.loc 3 360 0 is_stmt 1
	movl	-8(%rbp), %eax	# ena, tmp114
	movl	%eax, activeBoxIds(%rip)	# tmp114, activeBoxIds
	.loc 3 361 0
	nop
	leave
	.cfi_def_cfa 7, 8
	ret
	.cfi_endproc
.LFE77:
	.size	initActiveBoxIds, .-initActiveBoxIds
	.section	.text.packFlightModeFlags,"ax",@progbits
	.type	packFlightModeFlags, @function
packFlightModeFlags:
.LFB78:
	.loc 3 366 0
	.cfi_startproc
	pushq	%rbp	#
	.cfi_def_cfa_offset 16
	.cfi_offset 6, -16
	movq	%rsp, %rbp	#,
	.cfi_def_cfa_register 6
	subq	$32, %rsp	#,
	.loc 3 371 0
	movl	$0, -32(%rbp)	#, boxEnabledMask
	.loc 3 375 0
	movl	$-2049, -8(%rbp)	#, flightModeCopyMask
.LBB11:
	.loc 3 376 0
	movl	$0, -28(%rbp)	#, i
	jmp	.L41	#
.L45:
	.loc 3 377 0
	movl	-28(%rbp), %eax	# i, tmp119
	movzbl	flightMode_boxId_map.6744(%rax), %eax	# flightMode_boxId_map, D.7056
	cmpb	$-1, %al	#, D.7056
	je	.L57	#,
	.loc 3 379 0
	movl	-28(%rbp), %eax	# i, tmp120
	movl	$1, %edx	#, tmp121
	movl	%eax, %ecx	# tmp120, tmp138
	sall	%cl, %edx	# tmp138, D.7057
	movl	%edx, %eax	# D.7057, D.7057
	andl	-8(%rbp), %eax	# flightModeCopyMask, D.7058
	testl	%eax, %eax	# D.7058
	je	.L58	#,
	.loc 3 381 0
	movzwl	flightModeFlags(%rip), %eax	# flightModeFlags, D.7059
	movzwl	%ax, %edx	# D.7059, D.7057
	movl	-28(%rbp), %eax	# i, tmp122
	movl	%eax, %ecx	# tmp122, tmp140
	sarl	%cl, %edx	# tmp140, D.7057
	movl	%edx, %eax	# D.7057, D.7057
	andl	$1, %eax	#, D.7057
	testl	%eax, %eax	# D.7057
	je	.L43	#,
	.loc 3 382 0
	movl	-28(%rbp), %eax	# i, tmp123
	movzbl	flightMode_boxId_map.6744(%rax), %eax	# flightMode_boxId_map, D.7056
	movsbl	%al, %eax	# D.7056, D.7057
	movl	$1, %edx	#, tmp124
	movl	%eax, %ecx	# D.7057, tmp142
	sall	%cl, %edx	# tmp142, D.7057
	movl	%edx, %eax	# D.7057, D.7057
	orl	%eax, -32(%rbp)	# D.7058, boxEnabledMask
	jmp	.L43	#
.L57:
	.loc 3 378 0
	nop
	jmp	.L43	#
.L58:
	.loc 3 380 0
	nop
.L43:
	.loc 3 376 0 discriminator 2
	addl	$1, -28(%rbp)	#, i
.L41:
	.loc 3 376 0 is_stmt 0 discriminator 1
	cmpl	$11, -28(%rbp)	#, i
	jbe	.L45	#,
.LBE11:
	.loc 3 388 0 is_stmt 1
	movl	$169865664, -4(%rbp)	#, rcModeCopyMask
.LBB12:
	.loc 3 391 0
	movl	$0, -24(%rbp)	#, i
	jmp	.L46	#
.L49:
	.loc 3 392 0
	movl	-24(%rbp), %eax	# i, tmp125
	movl	$1, %edx	#, tmp126
	movl	%eax, %ecx	# tmp125, tmp144
	sall	%cl, %edx	# tmp144, D.7057
	movl	%edx, %eax	# D.7057, D.7057
	andl	-4(%rbp), %eax	# rcModeCopyMask, D.7058
	testl	%eax, %eax	# D.7058
	je	.L59	#,
	.loc 3 394 0
	movl	-24(%rbp), %eax	# i, tmp127
	movl	%eax, %edi	# tmp127,
	call	rcModeIsActive	#
	testb	%al, %al	# D.7060
	je	.L48	#,
	.loc 3 395 0
	movl	-24(%rbp), %eax	# i, tmp128
	movl	$1, %edx	#, tmp129
	movl	%eax, %ecx	# tmp128, tmp146
	sall	%cl, %edx	# tmp146, D.7057
	movl	%edx, %eax	# D.7057, D.7057
	orl	%eax, -32(%rbp)	# D.7058, boxEnabledMask
	jmp	.L48	#
.L59:
	.loc 3 393 0
	nop
.L48:
	.loc 3 391 0 discriminator 2
	addl	$1, -24(%rbp)	#, i
.L46:
	.loc 3 391 0 is_stmt 0 discriminator 1
	cmpl	$31, -24(%rbp)	#, i
	jbe	.L49	#,
.LBE12:
	.loc 3 399 0 is_stmt 1
	movzbl	armingFlags(%rip), %eax	# armingFlags, D.7061
	movzbl	%al, %eax	# D.7061, D.7057
	andl	$4, %eax	#, D.7057
	testl	%eax, %eax	# D.7057
	je	.L50	#,
	.loc 3 400 0
	orl	$1, -32(%rbp)	#, boxEnabledMask
.L50:
	.loc 3 404 0
	movl	$0, -20(%rbp)	#, mspBoxEnabledMask
	.loc 3 405 0
	movl	$0, -16(%rbp)	#, mspBoxIdx
.LBB13:
	.loc 3 406 0
	movl	$0, -12(%rbp)	#, boxId
	jmp	.L51	#
.L55:
	.loc 3 407 0
	movl	-12(%rbp), %eax	# boxId, tmp130
	movl	$1, %edx	#, tmp131
	movl	%eax, %ecx	# tmp130, tmp148
	sall	%cl, %edx	# tmp148, D.7057
	movl	%edx, %eax	# D.7057, D.7057
	movl	%eax, %edx	# D.7057, D.7058
	movl	activeBoxIds(%rip), %eax	# activeBoxIds, D.7058
	andl	%edx, %eax	# D.7058, D.7058
	testl	%eax, %eax	# D.7058
	je	.L60	#,
	.loc 3 409 0
	movl	-12(%rbp), %eax	# boxId, tmp132
	movl	$1, %edx	#, tmp133
	movl	%eax, %ecx	# tmp132, tmp150
	sall	%cl, %edx	# tmp150, D.7057
	movl	%edx, %eax	# D.7057, D.7057
	andl	-32(%rbp), %eax	# boxEnabledMask, D.7058
	testl	%eax, %eax	# D.7058
	je	.L54	#,
	.loc 3 410 0
	movl	-16(%rbp), %eax	# mspBoxIdx, tmp134
	movl	$1, %edx	#, tmp135
	movl	%eax, %ecx	# tmp134, tmp152
	sall	%cl, %edx	# tmp152, D.7057
	movl	%edx, %eax	# D.7057, D.7057
	orl	%eax, -20(%rbp)	# D.7058, mspBoxEnabledMask
.L54:
	.loc 3 411 0
	addl	$1, -16(%rbp)	#, mspBoxIdx
	jmp	.L53	#
.L60:
	.loc 3 408 0
	nop
.L53:
	.loc 3 406 0 discriminator 2
	addl	$1, -12(%rbp)	#, boxId
.L51:
	.loc 3 406 0 is_stmt 0 discriminator 1
	cmpl	$27, -12(%rbp)	#, boxId
	jbe	.L55	#,
.LBE13:
	.loc 3 413 0 is_stmt 1
	movl	-20(%rbp), %eax	# mspBoxEnabledMask, D.7062
	.loc 3 414 0
	leave
	.cfi_def_cfa 7, 8
	ret
	.cfi_endproc
.LFE78:
	.size	packFlightModeFlags, .-packFlightModeFlags
	.section	.text.serializeSDCardSummaryReply,"ax",@progbits
	.type	serializeSDCardSummaryReply, @function
serializeSDCardSummaryReply:
.LFB79:
	.loc 3 417 0
	.cfi_startproc
	pushq	%rbp	#
	.cfi_def_cfa_offset 16
	.cfi_offset 6, -16
	movq	%rsp, %rbp	#,
	.cfi_def_cfa_register 6
	subq	$32, %rsp	#,
	movq	%rdi, -24(%rbp)	# reply, reply
	.loc 3 418 0
	movq	-24(%rbp), %rax	# reply, tmp87
	movq	%rax, -8(%rbp)	# tmp87, dst
	.loc 3 456 0
	movq	-8(%rbp), %rax	# dst, tmp88
	movl	$0, %esi	#,
	movq	%rax, %rdi	# tmp88,
	call	sbufWriteU8	#
	.loc 3 457 0
	movq	-8(%rbp), %rax	# dst, tmp89
	movl	$0, %esi	#,
	movq	%rax, %rdi	# tmp89,
	call	sbufWriteU8	#
	.loc 3 458 0
	movq	-8(%rbp), %rax	# dst, tmp90
	movl	$0, %esi	#,
	movq	%rax, %rdi	# tmp90,
	call	sbufWriteU8	#
	.loc 3 459 0
	movq	-8(%rbp), %rax	# dst, tmp91
	movl	$0, %esi	#,
	movq	%rax, %rdi	# tmp91,
	call	sbufWriteU32	#
	.loc 3 460 0
	movq	-8(%rbp), %rax	# dst, tmp92
	movl	$0, %esi	#,
	movq	%rax, %rdi	# tmp92,
	call	sbufWriteU32	#
	.loc 3 462 0
	nop
	leave
	.cfi_def_cfa 7, 8
	ret
	.cfi_endproc
.LFE79:
	.size	serializeSDCardSummaryReply, .-serializeSDCardSummaryReply
	.section	.text.serializeDataflashSummaryReply,"ax",@progbits
	.type	serializeDataflashSummaryReply, @function
serializeDataflashSummaryReply:
.LFB80:
	.loc 3 465 0
	.cfi_startproc
	pushq	%rbp	#
	.cfi_def_cfa_offset 16
	.cfi_offset 6, -16
	movq	%rsp, %rbp	#,
	.cfi_def_cfa_register 6
	subq	$32, %rsp	#,
	movq	%rdi, -24(%rbp)	# reply, reply
	.loc 3 466 0
	movq	-24(%rbp), %rax	# reply, tmp87
	movq	%rax, -8(%rbp)	# tmp87, dst
	.loc 3 476 0
	movq	-8(%rbp), %rax	# dst, tmp88
	movl	$0, %esi	#,
	movq	%rax, %rdi	# tmp88,
	call	sbufWriteU8	#
	.loc 3 477 0
	movq	-8(%rbp), %rax	# dst, tmp89
	movl	$0, %esi	#,
	movq	%rax, %rdi	# tmp89,
	call	sbufWriteU32	#
	.loc 3 478 0
	movq	-8(%rbp), %rax	# dst, tmp90
	movl	$0, %esi	#,
	movq	%rax, %rdi	# tmp90,
	call	sbufWriteU32	#
	.loc 3 479 0
	movq	-8(%rbp), %rax	# dst, tmp91
	movl	$0, %esi	#,
	movq	%rax, %rdi	# tmp91,
	call	sbufWriteU32	#
	.loc 3 481 0
	nop
	leave
	.cfi_def_cfa 7, 8
	ret
	.cfi_endproc
.LFE80:
	.size	serializeDataflashSummaryReply, .-serializeDataflashSummaryReply
	.section	.rodata
.LC30:
	.string	"command code: %d\n"
.LC31:
	.string	"MSP_STATUS"
.LC32:
	.string	"MSP_DATAFLASH_SUMMARY"
.LC33:
	.string	"Unknown"
	.section	.text.mspServerCommandHandler,"ax",@progbits
	.globl	mspServerCommandHandler
	.type	mspServerCommandHandler, @function
mspServerCommandHandler:
.LFB81:
	.loc 3 497 0
	.cfi_startproc
	pushq	%rbp	#
	.cfi_def_cfa_offset 16
	.cfi_offset 6, -16
	movq	%rsp, %rbp	#,
	.cfi_def_cfa_register 6
	pushq	%rbx	#
	subq	$72, %rsp	#,
	.cfi_offset 3, -24
	movq	%rdi, -72(%rbp)	# cmd, cmd
	movq	%rsi, -80(%rbp)	# reply, reply
	.loc 3 499 0
	movq	-80(%rbp), %rax	# reply, tmp148
	movq	%rax, -32(%rbp)	# tmp148, dst
	.loc 3 500 0
	movq	-72(%rbp), %rax	# cmd, tmp149
	movq	%rax, -24(%rbp)	# tmp149, src
	.loc 3 502 0
	movq	-24(%rbp), %rax	# src, tmp150
	movq	%rax, %rdi	# tmp150,
	call	sbufBytesRemaining	#
	movl	%eax, -40(%rbp)	# tmp151, len
	.loc 3 504 0
	movq	-72(%rbp), %rax	# cmd, tmp152
	movzwl	16(%rax), %eax	# cmd_11(D)->cmd, D.7064
	cwtl
	movl	%eax, %esi	# D.7065,
	movl	$.LC30, %edi	#,
	movl	$0, %eax	#,
	call	printf	#
	.loc 3 505 0
	movq	-72(%rbp), %rax	# cmd, tmp153
	movzwl	16(%rax), %eax	# cmd_11(D)->cmd, D.7064
	cwtl
	cmpl	$5, %eax	#, D.7065
	je	.L65	#,
	cmpl	$5, %eax	#, D.7065
	jg	.L66	#,
	cmpl	$2, %eax	#, D.7065
	je	.L67	#,
	cmpl	$2, %eax	#, D.7065
	jg	.L68	#,
	cmpl	$1, %eax	#, D.7065
	je	.L69	#,
	jmp	.L64	#
.L68:
	cmpl	$3, %eax	#, D.7065
	je	.L70	#,
	cmpl	$4, %eax	#, D.7065
	je	.L71	#,
	jmp	.L64	#
.L66:
	cmpl	$100, %eax	#, D.7065
	je	.L72	#,
	cmpl	$100, %eax	#, D.7065
	jg	.L73	#,
	cmpl	$70, %eax	#, D.7065
	je	.L74	#,
	jmp	.L64	#
.L73:
	cmpl	$101, %eax	#, D.7065
	je	.L75	#,
	cmpl	$102, %eax	#, D.7065
	je	.L76	#,
	jmp	.L64	#
.L69:
	.loc 3 508 0
	movq	-32(%rbp), %rax	# dst, tmp154
	movl	$0, %esi	#,
	movq	%rax, %rdi	# tmp154,
	call	sbufWriteU8	#
	.loc 3 509 0
	movq	-32(%rbp), %rax	# dst, tmp155
	movl	$1, %esi	#,
	movq	%rax, %rdi	# tmp155,
	call	sbufWriteU8	#
	.loc 3 510 0
	movq	-32(%rbp), %rax	# dst, tmp156
	movl	$22, %esi	#,
	movq	%rax, %rdi	# tmp156,
	call	sbufWriteU8	#
	.loc 3 511 0
	jmp	.L77	#
.L67:
	.loc 3 514 0
	movl	$.LC0, %ecx	#, D.7066
	movq	-32(%rbp), %rax	# dst, tmp157
	movl	$4, %edx	#,
	movq	%rcx, %rsi	# D.7066,
	movq	%rax, %rdi	# tmp157,
	call	sbufWriteData	#
	.loc 3 515 0
	jmp	.L77	#
.L70:
	.loc 3 518 0
	movq	-32(%rbp), %rax	# dst, tmp158
	movl	$1, %esi	#,
	movq	%rax, %rdi	# tmp158,
	call	sbufWriteU8	#
	.loc 3 519 0
	movq	-32(%rbp), %rax	# dst, tmp159
	movl	$14, %esi	#,
	movq	%rax, %rdi	# tmp159,
	call	sbufWriteU8	#
	.loc 3 520 0
	movq	-32(%rbp), %rax	# dst, tmp160
	movl	$0, %esi	#,
	movq	%rax, %rdi	# tmp160,
	call	sbufWriteU8	#
	.loc 3 521 0
	jmp	.L77	#
.L71:
	.loc 3 524 0
	movl	$.LC1, %ecx	#, D.7066
	movq	-32(%rbp), %rax	# dst, tmp161
	movl	$4, %edx	#,
	movq	%rcx, %rsi	# D.7066,
	movq	%rax, %rdi	# tmp161,
	call	sbufWriteData	#
	.loc 3 528 0
	movq	-32(%rbp), %rax	# dst, tmp162
	movl	$0, %esi	#,
	movq	%rax, %rdi	# tmp162,
	call	sbufWriteU16	#
	.loc 3 530 0
	movq	-32(%rbp), %rax	# dst, tmp163
	movl	$0, %esi	#,
	movq	%rax, %rdi	# tmp163,
	call	sbufWriteU8	#
	.loc 3 531 0
	jmp	.L77	#
.L65:
	.loc 3 534 0
	movq	buildDate(%rip), %rcx	# buildDate, D.7066
	movq	-32(%rbp), %rax	# dst, tmp164
	movl	$11, %edx	#,
	movq	%rcx, %rsi	# D.7066,
	movq	%rax, %rdi	# tmp164,
	call	sbufWriteData	#
	.loc 3 535 0
	movq	buildTime(%rip), %rcx	# buildTime, D.7066
	movq	-32(%rbp), %rax	# dst, tmp165
	movl	$8, %edx	#,
	movq	%rcx, %rsi	# D.7066,
	movq	%rax, %rdi	# tmp165,
	call	sbufWriteData	#
	.loc 3 536 0
	movq	shortGitRevision(%rip), %rcx	# shortGitRevision, D.7066
	movq	-32(%rbp), %rax	# dst, tmp166
	movl	$7, %edx	#,
	movq	%rcx, %rsi	# D.7066,
	movq	%rax, %rdi	# tmp166,
	call	sbufWriteData	#
	.loc 3 537 0
	jmp	.L77	#
.L72:
	.loc 3 541 0
	movq	-32(%rbp), %rax	# dst, tmp167
	movl	$231, %esi	#,
	movq	%rax, %rdi	# tmp167,
	call	sbufWriteU8	#
	.loc 3 542 0
	call	mixerConfig	#
	movzbl	(%rax), %eax	# _41->mixerMode, D.7068
	movzbl	%al, %edx	# D.7068, D.7065
	movq	-32(%rbp), %rax	# dst, tmp168
	movl	%edx, %esi	# D.7065,
	movq	%rax, %rdi	# tmp168,
	call	sbufWriteU8	#
	.loc 3 543 0
	movq	-32(%rbp), %rax	# dst, tmp169
	movl	$0, %esi	#,
	movq	%rax, %rdi	# tmp169,
	call	sbufWriteU8	#
	.loc 3 544 0
	movq	-32(%rbp), %rax	# dst, tmp170
	movl	$4, %esi	#,
	movq	%rax, %rdi	# tmp170,
	call	sbufWriteU32	#
	.loc 3 545 0
	jmp	.L77	#
.L75:
	.loc 3 548 0
	movl	$.LC31, %edi	#,
	call	puts	#
	.loc 3 549 0
	movzwl	cycleTime(%rip), %eax	# cycleTime, D.7069
	movzwl	%ax, %edx	# D.7069, D.7065
	movq	-32(%rbp), %rax	# dst, tmp171
	movl	%edx, %esi	# D.7065,
	movq	%rax, %rdi	# tmp171,
	call	sbufWriteU16	#
	.loc 3 553 0
	movq	-32(%rbp), %rax	# dst, tmp172
	movl	$0, %esi	#,
	movq	%rax, %rdi	# tmp172,
	call	sbufWriteU16	#
	.loc 3 555 0
	movl	$2, %edi	#,
	call	sensors	#
	movzbl	%al, %ebx	# D.7070, D.7071
	movl	$4, %edi	#,
	call	sensors	#
	movzbl	%al, %eax	# D.7070, D.7065
	addl	%eax, %eax	# D.7065
	orl	%eax, %ebx	# D.7071, D.7071
	movl	$8, %edi	#,
	call	sensors	#
	movzbl	%al, %eax	# D.7070, D.7065
	sall	$2, %eax	#, D.7065
	orl	%eax, %ebx	# D.7071, D.7071
	movl	$32, %edi	#,
	call	sensors	#
	movzbl	%al, %eax	# D.7070, D.7065
	sall	$3, %eax	#, D.7065
	orl	%eax, %ebx	# D.7071, D.7071
	movl	$16, %edi	#,
	call	sensors	#
	movzbl	%al, %eax	# D.7070, D.7065
	sall	$4, %eax	#, D.7065
	orl	%ebx, %eax	# D.7071, D.7071
	movzwl	%ax, %edx	# D.7069, D.7065
	movq	-32(%rbp), %rax	# dst, tmp173
	movl	%edx, %esi	# D.7065,
	movq	%rax, %rdi	# tmp173,
	call	sbufWriteU16	#
	.loc 3 556 0
	call	packFlightModeFlags	#
	movl	%eax, %edx	#, D.7063
	movq	-32(%rbp), %rax	# dst, tmp174
	movl	%edx, %esi	# D.7063,
	movq	%rax, %rdi	# tmp174,
	call	sbufWriteU32	#
	.loc 3 557 0
	call	getCurrentProfile	#
	movzbl	%al, %edx	# D.7068, D.7065
	movq	-32(%rbp), %rax	# dst, tmp175
	movl	%edx, %esi	# D.7065,
	movq	%rax, %rdi	# tmp175,
	call	sbufWriteU8	#
	.loc 3 558 0
	movzwl	averageSystemLoadPercent(%rip), %eax	# averageSystemLoadPercent, D.7069
	movzwl	%ax, %eax	# D.7069, D.7065
	movl	$100, %edx	#,
	movl	$0, %esi	#,
	movl	%eax, %edi	# D.7065,
	call	constrain	#
	movzwl	%ax, %edx	# D.7069, D.7065
	movq	-32(%rbp), %rax	# dst, tmp176
	movl	%edx, %esi	# D.7065,
	movq	%rax, %rdi	# tmp176,
	call	sbufWriteU16	#
	.loc 3 559 0
	jmp	.L77	#
.L76:
.LBB14:
	.loc 3 563 0
	movzwl	acc+16(%rip), %eax	# acc.acc_1G, D.7069
	cmpw	$1024, %ax	#, D.7069
	jbe	.L78	#,
	.loc 3 563 0 is_stmt 0 discriminator 1
	movl	$3, %eax	#, D.7063
	jmp	.L79	#
.L78:
	.loc 3 563 0 discriminator 2
	movl	$0, %eax	#, D.7063
.L79:
	.loc 3 563 0 discriminator 4
	movl	%eax, -36(%rbp)	# D.7063, scale_shift
.LBB15:
	.loc 3 565 0 is_stmt 1 discriminator 4
	movl	$0, -52(%rbp)	#, i
	jmp	.L80	#
.L81:
	.loc 3 566 0 discriminator 3
	movl	-52(%rbp), %eax	# i, tmp177
	movzwl	accSmooth(%rax,%rax), %eax	# accSmooth, D.7064
	movswl	%ax, %edx	# D.7064, D.7065
	movl	-36(%rbp), %eax	# scale_shift, tmp178
	movl	%eax, %ecx	# tmp178, tmp187
	sarl	%cl, %edx	# tmp187, D.7065
	movl	%edx, %eax	# D.7065, D.7065
	movzwl	%ax, %edx	# D.7069, D.7065
	movq	-32(%rbp), %rax	# dst, tmp179
	movl	%edx, %esi	# D.7065,
	movq	%rax, %rdi	# tmp179,
	call	sbufWriteU16	#
	.loc 3 565 0 discriminator 3
	addl	$1, -52(%rbp)	#, i
.L80:
	.loc 3 565 0 is_stmt 0 discriminator 1
	cmpl	$2, -52(%rbp)	#, i
	jbe	.L81	#,
.LBE15:
.LBB16:
	.loc 3 567 0 is_stmt 1
	movl	$0, -48(%rbp)	#, i
	jmp	.L82	#
.L83:
	.loc 3 568 0 discriminator 3
	movl	-48(%rbp), %eax	# i, tmp180
	movl	gyroADC(,%rax,4), %eax	# gyroADC, D.7065
	movzwl	%ax, %edx	# D.7069, D.7065
	movq	-32(%rbp), %rax	# dst, tmp181
	movl	%edx, %esi	# D.7065,
	movq	%rax, %rdi	# tmp181,
	call	sbufWriteU16	#
	.loc 3 567 0 discriminator 3
	addl	$1, -48(%rbp)	#, i
.L82:
	.loc 3 567 0 is_stmt 0 discriminator 1
	cmpl	$2, -48(%rbp)	#, i
	jbe	.L83	#,
.LBE16:
.LBB17:
	.loc 3 569 0 is_stmt 1
	movl	$0, -44(%rbp)	#, i
	jmp	.L84	#
.L85:
	.loc 3 570 0 discriminator 3
	movl	-44(%rbp), %eax	# i, tmp182
	movl	magADC(,%rax,4), %eax	# magADC, D.7065
	movzwl	%ax, %edx	# D.7069, D.7065
	movq	-32(%rbp), %rax	# dst, tmp183
	movl	%edx, %esi	# D.7065,
	movq	%rax, %rdi	# tmp183,
	call	sbufWriteU16	#
	.loc 3 569 0 discriminator 3
	addl	$1, -44(%rbp)	#, i
.L84:
	.loc 3 569 0 is_stmt 0 discriminator 1
	cmpl	$2, -44(%rbp)	#, i
	jbe	.L85	#,
.LBE17:
	.loc 3 571 0 is_stmt 1
	jmp	.L77	#
.L74:
.LBE14:
	.loc 3 575 0
	movl	$.LC32, %edi	#,
	call	puts	#
	.loc 3 576 0
	movq	-80(%rbp), %rax	# reply, tmp184
	movq	%rax, %rdi	# tmp184,
	call	serializeDataflashSummaryReply	#
	.loc 3 577 0
	jmp	.L77	#
.L64:
	.loc 3 580 0
	movl	$.LC33, %edi	#,
	call	puts	#
	.loc 3 581 0
	nop
.L77:
	.loc 3 1539 0
	movl	$1, %eax	#, D.7065
	.loc 3 1540 0
	addq	$72, %rsp	#,
	popq	%rbx	#
	popq	%rbp	#
	.cfi_def_cfa 7, 8
	ret
	.cfi_endproc
.LFE81:
	.size	mspServerCommandHandler, .-mspServerCommandHandler
	.section	.text.mspInit,"ax",@progbits
	.globl	mspInit
	.type	mspInit, @function
mspInit:
.LFB82:
	.loc 3 1543 0
	.cfi_startproc
	pushq	%rbp	#
	.cfi_def_cfa_offset 16
	.cfi_offset 6, -16
	movq	%rsp, %rbp	#,
	.cfi_def_cfa_register 6
	.loc 3 1544 0
	call	initActiveBoxIds	#
	.loc 3 1545 0
	nop
	popq	%rbp	#
	.cfi_def_cfa 7, 8
	ret
	.cfi_endproc
.LFE82:
	.size	mspInit, .-mspInit
	.section	.rodata.flightMode_boxId_map.6744,"a",@progbits
	.align 8
	.type	flightMode_boxId_map.6744, @object
	.size	flightMode_boxId_map.6744, 12
flightMode_boxId_map.6744:
	.byte	1
	.byte	2
	.byte	4
	.byte	3
	.byte	9
	.byte	10
	.byte	5
	.byte	-1
	.byte	11
	.byte	21
	.byte	26
	.byte	20
	.text
.Letext0:
	.file 4 "/usr/include/stdint.h"
	.file 5 "./src/main/common/axis.h"
	.file 6 "./src/main/common/color.h"
	.file 7 "./src/main/common/streambuf.h"
	.file 8 "./src/main/config/parameter_group.h"
	.file 9 "./src/main/config/feature.h"
	.file 10 "./src/main/config/profile.h"
	.file 11 "./src/main/drivers/sensor.h"
	.file 12 "./src/main/drivers/accgyro.h"
	.file 13 "./src/main/rx/rx.h"
	.file 14 "./src/main/msp/msp.h"
	.file 15 "./src/main/fc/rate_profile.h"
	.file 16 "./src/main/fc/rc_controls.h"
	.file 17 "./src/main/fc/rc_adjustments.h"
	.file 18 "./src/main/fc/runtime_config.h"
	.file 19 "./src/main/fc/config.h"
	.file 20 "./src/main/io/motor_and_servo.h"
	.file 21 "./src/main/io/gps.h"
	.file 22 "./src/main/io/gimbal.h"
	.file 23 "./src/main/io/io_serial.h"
	.file 24 "./src/main/io/ledstrip.h"
	.file 25 "./src/main/io/transponder_ir.h"
	.file 26 "./src/main/telemetry/telemetry.h"
	.file 27 "./src/main/sensors/boardalignment.h"
	.file 28 "./src/main/sensors/sensors.h"
	.file 29 "./src/main/sensors/amperage.h"
	.file 30 "./src/main/sensors/voltage.h"
	.file 31 "./src/main/sensors/battery.h"
	.file 32 "./src/main/sensors/acceleration.h"
	.file 33 "./src/main/sensors/compass.h"
	.file 34 "./src/main/sensors/gyro.h"
	.file 35 "./src/main/flight/servos.h"
	.file 36 "./src/main/flight/pid.h"
	.file 37 "./src/main/flight/imu.h"
	.file 38 "./src/main/flight/failsafe.h"
	.file 39 "./src/main/flight/navigation.h"
	.file 40 "./src/main/flight/altitudehold.h"
	.file 41 "./src/main/blackbox/blackbox.h"
	.file 42 "./src/main/msp/msp_server.h"
	.file 43 "./src/main/target/edison/target.h"
	.file 44 "./src/main/scheduler/scheduler.h"
	.file 45 "./src/main/build/version.h"
	.section	.note.GNU-stack,"",@progbits
