	.file	"runtime_config.c"
# GNU C99 (Ubuntu 5.4.1-2ubuntu1~16.04) version 5.4.1 20160904 (x86_64-linux-gnu)
#	compiled by GNU C version 5.4.1 20160904, GMP version 6.1.0, MPFR version 3.1.4, MPC version 1.0.3
# GGC heuristics: --param ggc-min-expand=100 --param ggc-min-heapsize=131072
# options passed:  -fpreprocessed runtime_config.i -mtune=generic
# -march=x86-64 -g -std=gnu99 -ffunction-sections -fdata-sections
# -fverbose-asm -ffat-lto-objects -fstack-protector-strong -Wformat
# -Wformat-security
# options enabled:  -faggressive-loop-optimizations
# -fasynchronous-unwind-tables -fauto-inc-dec -fchkp-check-incomplete-type
# -fchkp-check-read -fchkp-check-write -fchkp-instrument-calls
# -fchkp-narrow-bounds -fchkp-optimize -fchkp-store-bounds
# -fchkp-use-static-bounds -fchkp-use-static-const-bounds
# -fchkp-use-wrappers -fcommon -fdata-sections -fdelete-null-pointer-checks
# -fdwarf2-cfi-asm -fearly-inlining -feliminate-unused-debug-types
# -ffunction-cse -ffunction-sections -fgcse-lm -fgnu-runtime -fgnu-unique
# -fident -finline-atomics -fira-hoist-pressure -fira-share-save-slots
# -fira-share-spill-slots -fivopts -fkeep-static-consts
# -fleading-underscore -flifetime-dse -flto-odr-type-merging -fmath-errno
# -fmerge-debug-strings -fpeephole -fprefetch-loop-arrays
# -freg-struct-return -fsched-critical-path-heuristic
# -fsched-dep-count-heuristic -fsched-group-heuristic -fsched-interblock
# -fsched-last-insn-heuristic -fsched-rank-heuristic -fsched-spec
# -fsched-spec-insn-heuristic -fsched-stalled-insns-dep -fschedule-fusion
# -fsemantic-interposition -fshow-column -fsigned-zeros
# -fsplit-ivs-in-unroller -fstack-protector-strong -fstdarg-opt
# -fstrict-volatile-bitfields -fsync-libcalls -ftrapping-math
# -ftree-coalesce-vars -ftree-cselim -ftree-forwprop -ftree-loop-if-convert
# -ftree-loop-im -ftree-loop-ivcanon -ftree-loop-optimize
# -ftree-parallelize-loops= -ftree-phiprop -ftree-reassoc -ftree-scev-cprop
# -funit-at-a-time -funwind-tables -fverbose-asm -fzero-initialized-in-bss
# -m128bit-long-double -m64 -m80387 -malign-stringops
# -mavx256-split-unaligned-load -mavx256-split-unaligned-store
# -mfancy-math-387 -mfp-ret-in-387 -mfxsr -mglibc -mieee-fp
# -mlong-double-80 -mmmx -mno-sse4 -mpush-args -mred-zone -msse -msse2
# -mtls-direct-seg-refs -mvzeroupper

	.text
.Ltext0:
	.globl	armingFlags
	.section	.bss.armingFlags,"aw",@nobits
	.type	armingFlags, @object
	.size	armingFlags, 1
armingFlags:
	.zero	1
	.globl	stateFlags
	.section	.bss.stateFlags,"aw",@nobits
	.type	stateFlags, @object
	.size	stateFlags, 1
stateFlags:
	.zero	1
	.globl	flightModeFlags
	.section	.bss.flightModeFlags,"aw",@nobits
	.align 2
	.type	flightModeFlags, @object
	.size	flightModeFlags, 2
flightModeFlags:
	.zero	2
	.section	.bss.enabledSensors,"aw",@nobits
	.align 4
	.type	enabledSensors, @object
	.size	enabledSensors, 4
enabledSensors:
	.zero	4
	.section	.text.enableFlightMode,"ax",@progbits
	.globl	enableFlightMode
	.type	enableFlightMode, @function
enableFlightMode:
.LFB0:
	.file 1 "src/main/fc/runtime_config.c"
	.loc 1 35 0
	.cfi_startproc
	pushq	%rbp	#
	.cfi_def_cfa_offset 16
	.cfi_offset 6, -16
	movq	%rsp, %rbp	#,
	.cfi_def_cfa_register 6
	subq	$32, %rsp	#,
	movl	%edi, -20(%rbp)	# mask, mask
	.loc 1 36 0
	movzwl	flightModeFlags(%rip), %eax	# flightModeFlags, tmp93
	movw	%ax, -2(%rbp)	# tmp93, oldVal
	.loc 1 38 0
	movl	-20(%rbp), %eax	# mask, tmp94
	movl	%eax, %edx	# tmp94, D.1996
	movzwl	flightModeFlags(%rip), %eax	# flightModeFlags, D.1996
	orl	%edx, %eax	# D.1996, D.1996
	movw	%ax, flightModeFlags(%rip)	# D.1996, flightModeFlags
	.loc 1 39 0
	movzwl	flightModeFlags(%rip), %eax	# flightModeFlags, D.1996
	cmpw	-2(%rbp), %ax	# oldVal, D.1996
	je	.L2	#,
	.loc 1 40 0
	movl	$1, %edi	#,
	call	beeperConfirmationBeeps	#
.L2:
	.loc 1 41 0
	movzwl	flightModeFlags(%rip), %eax	# flightModeFlags, D.1997
	.loc 1 42 0
	leave
	.cfi_def_cfa 7, 8
	ret
	.cfi_endproc
.LFE0:
	.size	enableFlightMode, .-enableFlightMode
	.section	.text.disableFlightMode,"ax",@progbits
	.globl	disableFlightMode
	.type	disableFlightMode, @function
disableFlightMode:
.LFB1:
	.loc 1 49 0
	.cfi_startproc
	pushq	%rbp	#
	.cfi_def_cfa_offset 16
	.cfi_offset 6, -16
	movq	%rsp, %rbp	#,
	.cfi_def_cfa_register 6
	subq	$32, %rsp	#,
	movl	%edi, -20(%rbp)	# mask, mask
	.loc 1 50 0
	movzwl	flightModeFlags(%rip), %eax	# flightModeFlags, tmp94
	movw	%ax, -2(%rbp)	# tmp94, oldVal
	.loc 1 52 0
	movl	-20(%rbp), %eax	# mask, tmp95
	notl	%eax	# D.1998
	movl	%eax, %edx	# D.1998, D.1998
	movzwl	flightModeFlags(%rip), %eax	# flightModeFlags, D.1998
	andl	%edx, %eax	# D.1998, D.1998
	movw	%ax, flightModeFlags(%rip)	# D.1998, flightModeFlags
	.loc 1 53 0
	movzwl	flightModeFlags(%rip), %eax	# flightModeFlags, D.1998
	cmpw	-2(%rbp), %ax	# oldVal, D.1998
	je	.L5	#,
	.loc 1 54 0
	movl	$1, %edi	#,
	call	beeperConfirmationBeeps	#
.L5:
	.loc 1 55 0
	movzwl	flightModeFlags(%rip), %eax	# flightModeFlags, D.1999
	.loc 1 56 0
	leave
	.cfi_def_cfa 7, 8
	ret
	.cfi_endproc
.LFE1:
	.size	disableFlightMode, .-disableFlightMode
	.section	.text.sensors,"ax",@progbits
	.globl	sensors
	.type	sensors, @function
sensors:
.LFB2:
	.loc 1 59 0
	.cfi_startproc
	pushq	%rbp	#
	.cfi_def_cfa_offset 16
	.cfi_offset 6, -16
	movq	%rsp, %rbp	#,
	.cfi_def_cfa_register 6
	movl	%edi, -4(%rbp)	# mask, mask
	.loc 1 60 0
	movl	enabledSensors(%rip), %eax	# enabledSensors, D.2000
	andl	-4(%rbp), %eax	# mask, D.2000
	testl	%eax, %eax	# D.2000
	setne	%al	#, D.2001
	.loc 1 61 0
	popq	%rbp	#
	.cfi_def_cfa 7, 8
	ret
	.cfi_endproc
.LFE2:
	.size	sensors, .-sensors
	.section	.text.sensorsSet,"ax",@progbits
	.globl	sensorsSet
	.type	sensorsSet, @function
sensorsSet:
.LFB3:
	.loc 1 64 0
	.cfi_startproc
	pushq	%rbp	#
	.cfi_def_cfa_offset 16
	.cfi_offset 6, -16
	movq	%rsp, %rbp	#,
	.cfi_def_cfa_register 6
	movl	%edi, -4(%rbp)	# mask, mask
	.loc 1 65 0
	movl	enabledSensors(%rip), %eax	# enabledSensors, D.2002
	orl	-4(%rbp), %eax	# mask, D.2002
	movl	%eax, enabledSensors(%rip)	# D.2002, enabledSensors
	.loc 1 66 0
	nop
	popq	%rbp	#
	.cfi_def_cfa 7, 8
	ret
	.cfi_endproc
.LFE3:
	.size	sensorsSet, .-sensorsSet
	.section	.text.sensorsClear,"ax",@progbits
	.globl	sensorsClear
	.type	sensorsClear, @function
sensorsClear:
.LFB4:
	.loc 1 69 0
	.cfi_startproc
	pushq	%rbp	#
	.cfi_def_cfa_offset 16
	.cfi_offset 6, -16
	movq	%rsp, %rbp	#,
	.cfi_def_cfa_register 6
	movl	%edi, -4(%rbp)	# mask, mask
	.loc 1 70 0
	movl	-4(%rbp), %eax	# mask, tmp90
	notl	%eax	# D.2003
	movl	%eax, %edx	# D.2003, D.2003
	movl	enabledSensors(%rip), %eax	# enabledSensors, D.2003
	andl	%edx, %eax	# D.2003, D.2003
	movl	%eax, enabledSensors(%rip)	# D.2003, enabledSensors
	.loc 1 71 0
	nop
	popq	%rbp	#
	.cfi_def_cfa 7, 8
	ret
	.cfi_endproc
.LFE4:
	.size	sensorsClear, .-sensorsClear
	.section	.text.sensorsMask,"ax",@progbits
	.globl	sensorsMask
	.type	sensorsMask, @function
sensorsMask:
.LFB5:
	.loc 1 74 0
	.cfi_startproc
	pushq	%rbp	#
	.cfi_def_cfa_offset 16
	.cfi_offset 6, -16
	movq	%rsp, %rbp	#,
	.cfi_def_cfa_register 6
	.loc 1 75 0
	movl	enabledSensors(%rip), %eax	# enabledSensors, D.2004
	.loc 1 76 0
	popq	%rbp	#
	.cfi_def_cfa 7, 8
	ret
	.cfi_endproc
.LFE5:
	.size	sensorsMask, .-sensorsMask
	.text
.Letext0:
	.file 2 "/usr/include/stdint.h"
	.file 3 "./src/main/fc/runtime_config.h"
	.section	.note.GNU-stack,"",@progbits
