	.file	"serial.c"
# GNU C99 (Ubuntu 5.4.1-2ubuntu1~16.04) version 5.4.1 20160904 (x86_64-linux-gnu)
#	compiled by GNU C version 5.4.1 20160904, GMP version 6.1.0, MPFR version 3.1.4, MPC version 1.0.3
# GGC heuristics: --param ggc-min-expand=100 --param ggc-min-heapsize=131072
# options passed:  -fpreprocessed serial.i -mtune=generic -march=x86-64 -g
# -std=gnu99 -ffunction-sections -fdata-sections -fverbose-asm
# -ffat-lto-objects -fstack-protector-strong -Wformat -Wformat-security
# options enabled:  -faggressive-loop-optimizations
# -fasynchronous-unwind-tables -fauto-inc-dec -fchkp-check-incomplete-type
# -fchkp-check-read -fchkp-check-write -fchkp-instrument-calls
# -fchkp-narrow-bounds -fchkp-optimize -fchkp-store-bounds
# -fchkp-use-static-bounds -fchkp-use-static-const-bounds
# -fchkp-use-wrappers -fcommon -fdata-sections -fdelete-null-pointer-checks
# -fdwarf2-cfi-asm -fearly-inlining -feliminate-unused-debug-types
# -ffunction-cse -ffunction-sections -fgcse-lm -fgnu-runtime -fgnu-unique
# -fident -finline-atomics -fira-hoist-pressure -fira-share-save-slots
# -fira-share-spill-slots -fivopts -fkeep-static-consts
# -fleading-underscore -flifetime-dse -flto-odr-type-merging -fmath-errno
# -fmerge-debug-strings -fpeephole -fprefetch-loop-arrays
# -freg-struct-return -fsched-critical-path-heuristic
# -fsched-dep-count-heuristic -fsched-group-heuristic -fsched-interblock
# -fsched-last-insn-heuristic -fsched-rank-heuristic -fsched-spec
# -fsched-spec-insn-heuristic -fsched-stalled-insns-dep -fschedule-fusion
# -fsemantic-interposition -fshow-column -fsigned-zeros
# -fsplit-ivs-in-unroller -fstack-protector-strong -fstdarg-opt
# -fstrict-volatile-bitfields -fsync-libcalls -ftrapping-math
# -ftree-coalesce-vars -ftree-cselim -ftree-forwprop -ftree-loop-if-convert
# -ftree-loop-im -ftree-loop-ivcanon -ftree-loop-optimize
# -ftree-parallelize-loops= -ftree-phiprop -ftree-reassoc -ftree-scev-cprop
# -funit-at-a-time -funwind-tables -fverbose-asm -fzero-initialized-in-bss
# -m128bit-long-double -m64 -m80387 -malign-stringops
# -mavx256-split-unaligned-load -mavx256-split-unaligned-store
# -mfancy-math-387 -mfp-ret-in-387 -mfxsr -mglibc -mieee-fp
# -mlong-double-80 -mmmx -mno-sse4 -mpush-args -mred-zone -msse -msse2
# -mtls-direct-seg-refs -mvzeroupper

	.text
.Ltext0:
	.comm	U_ID_0,4,4
	.comm	U_ID_1,4,4
	.comm	U_ID_2,4,4
	.section	.text.serialPrint,"ax",@progbits
	.globl	serialPrint
	.type	serialPrint, @function
serialPrint:
.LFB0:
	.file 1 "src/main/drivers/serial.c"
	.loc 1 26 0
	.cfi_startproc
	pushq	%rbp	#
	.cfi_def_cfa_offset 16
	.cfi_offset 6, -16
	movq	%rsp, %rbp	#,
	.cfi_def_cfa_register 6
	subq	$32, %rsp	#,
	movq	%rdi, -24(%rbp)	# instance, instance
	movq	%rsi, -32(%rbp)	# str, str
	.loc 1 28 0
	jmp	.L2	#
.L3:
	.loc 1 29 0
	movzbl	-1(%rbp), %edx	# ch, D.2078
	movq	-24(%rbp), %rax	# instance, tmp90
	movl	%edx, %esi	# D.2078,
	movq	%rax, %rdi	# tmp90,
	call	serialWrite	#
.L2:
	.loc 1 28 0
	movq	-32(%rbp), %rax	# str, D.2076
	leaq	1(%rax), %rdx	#, tmp91
	movq	%rdx, -32(%rbp)	# tmp91, str
	movzbl	(%rax), %eax	# *_5, D.2077
	movb	%al, -1(%rbp)	# D.2077, ch
	cmpb	$0, -1(%rbp)	#, ch
	jne	.L3	#,
	.loc 1 31 0
	nop
	leave
	.cfi_def_cfa 7, 8
	ret
	.cfi_endproc
.LFE0:
	.size	serialPrint, .-serialPrint
	.section	.text.serialGetBaudRate,"ax",@progbits
	.globl	serialGetBaudRate
	.type	serialGetBaudRate, @function
serialGetBaudRate:
.LFB1:
	.loc 1 34 0
	.cfi_startproc
	pushq	%rbp	#
	.cfi_def_cfa_offset 16
	.cfi_offset 6, -16
	movq	%rsp, %rbp	#,
	.cfi_def_cfa_register 6
	movq	%rdi, -8(%rbp)	# instance, instance
	.loc 1 35 0
	movq	-8(%rbp), %rax	# instance, tmp89
	movl	20(%rax), %eax	# instance_2(D)->baudRate, D.2079
	.loc 1 36 0
	popq	%rbp	#
	.cfi_def_cfa 7, 8
	ret
	.cfi_endproc
.LFE1:
	.size	serialGetBaudRate, .-serialGetBaudRate
	.section	.text.serialWrite,"ax",@progbits
	.globl	serialWrite
	.type	serialWrite, @function
serialWrite:
.LFB2:
	.loc 1 39 0
	.cfi_startproc
	pushq	%rbp	#
	.cfi_def_cfa_offset 16
	.cfi_offset 6, -16
	movq	%rsp, %rbp	#,
	.cfi_def_cfa_register 6
	subq	$16, %rsp	#,
	movq	%rdi, -8(%rbp)	# instance, instance
	movl	%esi, %eax	# ch, tmp90
	movb	%al, -12(%rbp)	# tmp90, ch
	.loc 1 40 0
	movq	-8(%rbp), %rax	# instance, tmp91
	movq	(%rax), %rax	# instance_2(D)->vTable, D.2080
	movq	(%rax), %rax	# _3->serialWrite, D.2081
	movzbl	-12(%rbp), %ecx	# ch, D.2082
	movq	-8(%rbp), %rdx	# instance, tmp92
	movl	%ecx, %esi	# D.2082,
	movq	%rdx, %rdi	# tmp92,
	call	*%rax	# D.2081
	.loc 1 41 0
	nop
	leave
	.cfi_def_cfa 7, 8
	ret
	.cfi_endproc
.LFE2:
	.size	serialWrite, .-serialWrite
	.section	.text.serialWriteBuf,"ax",@progbits
	.globl	serialWriteBuf
	.type	serialWriteBuf, @function
serialWriteBuf:
.LFB3:
	.loc 1 45 0
	.cfi_startproc
	pushq	%rbp	#
	.cfi_def_cfa_offset 16
	.cfi_offset 6, -16
	movq	%rsp, %rbp	#,
	.cfi_def_cfa_register 6
	subq	$48, %rsp	#,
	movq	%rdi, -24(%rbp)	# instance, instance
	movq	%rsi, -32(%rbp)	# data, data
	movl	%edx, -36(%rbp)	# count, count
	.loc 1 46 0
	movq	-24(%rbp), %rax	# instance, tmp94
	movq	(%rax), %rax	# instance_7(D)->vTable, D.2083
	movq	56(%rax), %rax	# _8->writeBuf, D.2084
	testq	%rax, %rax	# D.2084
	je	.L8	#,
	.loc 1 47 0
	movq	-24(%rbp), %rax	# instance, tmp95
	movq	(%rax), %rax	# instance_7(D)->vTable, D.2083
	movq	56(%rax), %rax	# _10->writeBuf, D.2084
	movl	-36(%rbp), %edx	# count, tmp96
	movq	-32(%rbp), %rsi	# data, tmp97
	movq	-24(%rbp), %rcx	# instance, tmp98
	movq	%rcx, %rdi	# tmp98,
	call	*%rax	# D.2084
	.loc 1 57 0
	jmp	.L13	#
.L8:
.LBB2:
	.loc 1 49 0
	movq	-32(%rbp), %rax	# data, tmp99
	movq	%rax, -8(%rbp)	# tmp99, p
	jmp	.L10	#
.L12:
	.loc 1 51 0
	nop
.L11:
	.loc 1 51 0 is_stmt 0 discriminator 1
	movq	-24(%rbp), %rax	# instance, tmp100
	movq	%rax, %rdi	# tmp100,
	call	serialTxBytesFree	#
	testb	%al, %al	# D.2085
	je	.L11	#,
	.loc 1 54 0 is_stmt 1 discriminator 2
	movq	-8(%rbp), %rax	# p, tmp101
	movzbl	(%rax), %eax	# *p_2, D.2085
	movzbl	%al, %edx	# D.2085, D.2086
	movq	-24(%rbp), %rax	# instance, tmp102
	movl	%edx, %esi	# D.2086,
	movq	%rax, %rdi	# tmp102,
	call	serialWrite	#
	.loc 1 49 0 discriminator 2
	subl	$1, -36(%rbp)	#, count
	addq	$1, -8(%rbp)	#, p
.L10:
	.loc 1 49 0 is_stmt 0 discriminator 1
	cmpl	$0, -36(%rbp)	#, count
	jg	.L12	#,
.L13:
.LBE2:
	.loc 1 57 0 is_stmt 1
	nop
	leave
	.cfi_def_cfa 7, 8
	ret
	.cfi_endproc
.LFE3:
	.size	serialWriteBuf, .-serialWriteBuf
	.section	.text.serialRxBytesWaiting,"ax",@progbits
	.globl	serialRxBytesWaiting
	.type	serialRxBytesWaiting, @function
serialRxBytesWaiting:
.LFB4:
	.loc 1 60 0
	.cfi_startproc
	pushq	%rbp	#
	.cfi_def_cfa_offset 16
	.cfi_offset 6, -16
	movq	%rsp, %rbp	#,
	.cfi_def_cfa_register 6
	subq	$16, %rsp	#,
	movq	%rdi, -8(%rbp)	# instance, instance
	.loc 1 61 0
	movq	-8(%rbp), %rax	# instance, tmp91
	movq	(%rax), %rax	# instance_2(D)->vTable, D.2087
	movq	8(%rax), %rax	# _3->serialTotalRxWaiting, D.2088
	movq	-8(%rbp), %rdx	# instance, tmp92
	movq	%rdx, %rdi	# tmp92,
	call	*%rax	# D.2088
	.loc 1 62 0
	leave
	.cfi_def_cfa 7, 8
	ret
	.cfi_endproc
.LFE4:
	.size	serialRxBytesWaiting, .-serialRxBytesWaiting
	.section	.text.serialTxBytesFree,"ax",@progbits
	.globl	serialTxBytesFree
	.type	serialTxBytesFree, @function
serialTxBytesFree:
.LFB5:
	.loc 1 65 0
	.cfi_startproc
	pushq	%rbp	#
	.cfi_def_cfa_offset 16
	.cfi_offset 6, -16
	movq	%rsp, %rbp	#,
	.cfi_def_cfa_register 6
	subq	$16, %rsp	#,
	movq	%rdi, -8(%rbp)	# instance, instance
	.loc 1 66 0
	movq	-8(%rbp), %rax	# instance, tmp91
	movq	(%rax), %rax	# instance_2(D)->vTable, D.2090
	movq	16(%rax), %rax	# _3->serialTotalTxFree, D.2091
	movq	-8(%rbp), %rdx	# instance, tmp92
	movq	%rdx, %rdi	# tmp92,
	call	*%rax	# D.2091
	.loc 1 67 0
	leave
	.cfi_def_cfa 7, 8
	ret
	.cfi_endproc
.LFE5:
	.size	serialTxBytesFree, .-serialTxBytesFree
	.section	.text.serialRead,"ax",@progbits
	.globl	serialRead
	.type	serialRead, @function
serialRead:
.LFB6:
	.loc 1 70 0
	.cfi_startproc
	pushq	%rbp	#
	.cfi_def_cfa_offset 16
	.cfi_offset 6, -16
	movq	%rsp, %rbp	#,
	.cfi_def_cfa_register 6
	subq	$16, %rsp	#,
	movq	%rdi, -8(%rbp)	# instance, instance
	.loc 1 71 0
	movq	-8(%rbp), %rax	# instance, tmp91
	movq	(%rax), %rax	# instance_2(D)->vTable, D.2093
	movq	24(%rax), %rax	# _3->serialRead, D.2094
	movq	-8(%rbp), %rdx	# instance, tmp92
	movq	%rdx, %rdi	# tmp92,
	call	*%rax	# D.2094
	.loc 1 72 0
	leave
	.cfi_def_cfa 7, 8
	ret
	.cfi_endproc
.LFE6:
	.size	serialRead, .-serialRead
	.section	.text.serialSetBaudRate,"ax",@progbits
	.globl	serialSetBaudRate
	.type	serialSetBaudRate, @function
serialSetBaudRate:
.LFB7:
	.loc 1 75 0
	.cfi_startproc
	pushq	%rbp	#
	.cfi_def_cfa_offset 16
	.cfi_offset 6, -16
	movq	%rsp, %rbp	#,
	.cfi_def_cfa_register 6
	subq	$16, %rsp	#,
	movq	%rdi, -8(%rbp)	# instance, instance
	movl	%esi, -12(%rbp)	# baudRate, baudRate
	.loc 1 76 0
	movq	-8(%rbp), %rax	# instance, tmp89
	movq	(%rax), %rax	# instance_2(D)->vTable, D.2096
	movq	32(%rax), %rax	# _3->serialSetBaudRate, D.2097
	movl	-12(%rbp), %ecx	# baudRate, tmp90
	movq	-8(%rbp), %rdx	# instance, tmp91
	movl	%ecx, %esi	# tmp90,
	movq	%rdx, %rdi	# tmp91,
	call	*%rax	# D.2097
	.loc 1 77 0
	nop
	leave
	.cfi_def_cfa 7, 8
	ret
	.cfi_endproc
.LFE7:
	.size	serialSetBaudRate, .-serialSetBaudRate
	.section	.text.isSerialTransmitBufferEmpty,"ax",@progbits
	.globl	isSerialTransmitBufferEmpty
	.type	isSerialTransmitBufferEmpty, @function
isSerialTransmitBufferEmpty:
.LFB8:
	.loc 1 80 0
	.cfi_startproc
	pushq	%rbp	#
	.cfi_def_cfa_offset 16
	.cfi_offset 6, -16
	movq	%rsp, %rbp	#,
	.cfi_def_cfa_register 6
	subq	$16, %rsp	#,
	movq	%rdi, -8(%rbp)	# instance, instance
	.loc 1 81 0
	movq	-8(%rbp), %rax	# instance, tmp91
	movq	(%rax), %rax	# instance_2(D)->vTable, D.2098
	movq	40(%rax), %rax	# _3->isSerialTransmitBufferEmpty, D.2099
	movq	-8(%rbp), %rdx	# instance, tmp92
	movq	%rdx, %rdi	# tmp92,
	call	*%rax	# D.2099
	.loc 1 82 0
	leave
	.cfi_def_cfa 7, 8
	ret
	.cfi_endproc
.LFE8:
	.size	isSerialTransmitBufferEmpty, .-isSerialTransmitBufferEmpty
	.section	.text.serialSetMode,"ax",@progbits
	.globl	serialSetMode
	.type	serialSetMode, @function
serialSetMode:
.LFB9:
	.loc 1 85 0
	.cfi_startproc
	pushq	%rbp	#
	.cfi_def_cfa_offset 16
	.cfi_offset 6, -16
	movq	%rsp, %rbp	#,
	.cfi_def_cfa_register 6
	subq	$16, %rsp	#,
	movq	%rdi, -8(%rbp)	# instance, instance
	movl	%esi, -12(%rbp)	# mode, mode
	.loc 1 86 0
	movq	-8(%rbp), %rax	# instance, tmp89
	movq	(%rax), %rax	# instance_2(D)->vTable, D.2101
	movq	48(%rax), %rax	# _3->setMode, D.2102
	movl	-12(%rbp), %ecx	# mode, tmp90
	movq	-8(%rbp), %rdx	# instance, tmp91
	movl	%ecx, %esi	# tmp90,
	movq	%rdx, %rdi	# tmp91,
	call	*%rax	# D.2102
	.loc 1 87 0
	nop
	leave
	.cfi_def_cfa 7, 8
	ret
	.cfi_endproc
.LFE9:
	.size	serialSetMode, .-serialSetMode
	.section	.text.serialWriteBufShim,"ax",@progbits
	.globl	serialWriteBufShim
	.type	serialWriteBufShim, @function
serialWriteBufShim:
.LFB10:
	.loc 1 90 0
	.cfi_startproc
	pushq	%rbp	#
	.cfi_def_cfa_offset 16
	.cfi_offset 6, -16
	movq	%rsp, %rbp	#,
	.cfi_def_cfa_register 6
	subq	$32, %rsp	#,
	movq	%rdi, -8(%rbp)	# instance, instance
	movq	%rsi, -16(%rbp)	# data, data
	movl	%edx, -20(%rbp)	# count, count
	.loc 1 91 0
	movl	-20(%rbp), %edx	# count, tmp87
	movq	-16(%rbp), %rcx	# data, tmp88
	movq	-8(%rbp), %rax	# instance, tmp89
	movq	%rcx, %rsi	# tmp88,
	movq	%rax, %rdi	# tmp89,
	call	serialWriteBuf	#
	.loc 1 92 0
	nop
	leave
	.cfi_def_cfa 7, 8
	ret
	.cfi_endproc
.LFE10:
	.size	serialWriteBufShim, .-serialWriteBufShim
	.section	.text.serialBeginWrite,"ax",@progbits
	.globl	serialBeginWrite
	.type	serialBeginWrite, @function
serialBeginWrite:
.LFB11:
	.loc 1 95 0
	.cfi_startproc
	pushq	%rbp	#
	.cfi_def_cfa_offset 16
	.cfi_offset 6, -16
	movq	%rsp, %rbp	#,
	.cfi_def_cfa_register 6
	subq	$16, %rsp	#,
	movq	%rdi, -8(%rbp)	# instance, instance
	.loc 1 96 0
	movq	-8(%rbp), %rax	# instance, tmp91
	movq	(%rax), %rax	# instance_3(D)->vTable, D.2103
	movq	64(%rax), %rax	# _4->beginWrite, D.2104
	testq	%rax, %rax	# D.2104
	je	.L27	#,
	.loc 1 97 0
	movq	-8(%rbp), %rax	# instance, tmp92
	movq	(%rax), %rax	# instance_3(D)->vTable, D.2103
	movq	64(%rax), %rax	# _6->beginWrite, D.2104
	movq	-8(%rbp), %rdx	# instance, tmp93
	movq	%rdx, %rdi	# tmp93,
	call	*%rax	# D.2104
.L27:
	.loc 1 98 0
	nop
	leave
	.cfi_def_cfa 7, 8
	ret
	.cfi_endproc
.LFE11:
	.size	serialBeginWrite, .-serialBeginWrite
	.section	.text.serialEndWrite,"ax",@progbits
	.globl	serialEndWrite
	.type	serialEndWrite, @function
serialEndWrite:
.LFB12:
	.loc 1 101 0
	.cfi_startproc
	pushq	%rbp	#
	.cfi_def_cfa_offset 16
	.cfi_offset 6, -16
	movq	%rsp, %rbp	#,
	.cfi_def_cfa_register 6
	subq	$16, %rsp	#,
	movq	%rdi, -8(%rbp)	# instance, instance
	.loc 1 102 0
	movq	-8(%rbp), %rax	# instance, tmp91
	movq	(%rax), %rax	# instance_3(D)->vTable, D.2105
	movq	72(%rax), %rax	# _4->endWrite, D.2106
	testq	%rax, %rax	# D.2106
	je	.L30	#,
	.loc 1 103 0
	movq	-8(%rbp), %rax	# instance, tmp92
	movq	(%rax), %rax	# instance_3(D)->vTable, D.2105
	movq	72(%rax), %rax	# _6->endWrite, D.2106
	movq	-8(%rbp), %rdx	# instance, tmp93
	movq	%rdx, %rdi	# tmp93,
	call	*%rax	# D.2106
.L30:
	.loc 1 104 0
	nop
	leave
	.cfi_def_cfa 7, 8
	ret
	.cfi_endproc
.LFE12:
	.size	serialEndWrite, .-serialEndWrite
	.text
.Letext0:
	.file 2 "/usr/include/stdint.h"
	.file 3 "src/main/drivers/serial.h"
	.file 4 "./src/main/target/edison/target.h"
	.section	.note.GNU-stack,"",@progbits
