	.file	"serial_usb_vcp.c"
# GNU C99 (Ubuntu 5.4.1-2ubuntu1~16.04) version 5.4.1 20160904 (x86_64-linux-gnu)
#	compiled by GNU C version 5.4.1 20160904, GMP version 6.1.0, MPFR version 3.1.4, MPC version 1.0.3
# GGC heuristics: --param ggc-min-expand=100 --param ggc-min-heapsize=131072
# options passed:  -fpreprocessed serial_usb_vcp.i -mtune=generic
# -march=x86-64 -g -std=gnu99 -ffunction-sections -fdata-sections
# -fverbose-asm -ffat-lto-objects -fstack-protector-strong -Wformat
# -Wformat-security
# options enabled:  -faggressive-loop-optimizations
# -fasynchronous-unwind-tables -fauto-inc-dec -fchkp-check-incomplete-type
# -fchkp-check-read -fchkp-check-write -fchkp-instrument-calls
# -fchkp-narrow-bounds -fchkp-optimize -fchkp-store-bounds
# -fchkp-use-static-bounds -fchkp-use-static-const-bounds
# -fchkp-use-wrappers -fcommon -fdata-sections -fdelete-null-pointer-checks
# -fdwarf2-cfi-asm -fearly-inlining -feliminate-unused-debug-types
# -ffunction-cse -ffunction-sections -fgcse-lm -fgnu-runtime -fgnu-unique
# -fident -finline-atomics -fira-hoist-pressure -fira-share-save-slots
# -fira-share-spill-slots -fivopts -fkeep-static-consts
# -fleading-underscore -flifetime-dse -flto-odr-type-merging -fmath-errno
# -fmerge-debug-strings -fpeephole -fprefetch-loop-arrays
# -freg-struct-return -fsched-critical-path-heuristic
# -fsched-dep-count-heuristic -fsched-group-heuristic -fsched-interblock
# -fsched-last-insn-heuristic -fsched-rank-heuristic -fsched-spec
# -fsched-spec-insn-heuristic -fsched-stalled-insns-dep -fschedule-fusion
# -fsemantic-interposition -fshow-column -fsigned-zeros
# -fsplit-ivs-in-unroller -fstack-protector-strong -fstdarg-opt
# -fstrict-volatile-bitfields -fsync-libcalls -ftrapping-math
# -ftree-coalesce-vars -ftree-cselim -ftree-forwprop -ftree-loop-if-convert
# -ftree-loop-im -ftree-loop-ivcanon -ftree-loop-optimize
# -ftree-parallelize-loops= -ftree-phiprop -ftree-reassoc -ftree-scev-cprop
# -funit-at-a-time -funwind-tables -fverbose-asm -fzero-initialized-in-bss
# -m128bit-long-double -m64 -m80387 -malign-stringops
# -mavx256-split-unaligned-load -mavx256-split-unaligned-store
# -mfancy-math-387 -mfp-ret-in-387 -mfxsr -mglibc -mieee-fp
# -mlong-double-80 -mmmx -mno-sse4 -mpush-args -mred-zone -msse -msse2
# -mtls-direct-seg-refs -mvzeroupper

	.text
.Ltext0:
	.comm	U_ID_0,4,4
	.comm	U_ID_1,4,4
	.comm	U_ID_2,4,4
	.comm	receiveLength,4,4
	.section	.bss.vcpPort,"aw",@nobits
	.align 32
	.type	vcpPort, @object
	.size	vcpPort, 96
vcpPort:
	.zero	96
	.section	.text.usbVcpSetBaudRate,"ax",@progbits
	.type	usbVcpSetBaudRate, @function
usbVcpSetBaudRate:
.LFB4:
	.file 1 "src/main/drivers/serial_usb_vcp.c"
	.loc 1 44 0
	.cfi_startproc
	pushq	%rbp	#
	.cfi_def_cfa_offset 16
	.cfi_offset 6, -16
	movq	%rsp, %rbp	#,
	.cfi_def_cfa_register 6
	movq	%rdi, -8(%rbp)	# instance, instance
	movl	%esi, -12(%rbp)	# baudRate, baudRate
	.loc 1 47 0
	nop
	.loc 1 49 0
	popq	%rbp	#
	.cfi_def_cfa 7, 8
	ret
	.cfi_endproc
.LFE4:
	.size	usbVcpSetBaudRate, .-usbVcpSetBaudRate
	.section	.text.usbVcpSetMode,"ax",@progbits
	.type	usbVcpSetMode, @function
usbVcpSetMode:
.LFB5:
	.loc 1 52 0
	.cfi_startproc
	pushq	%rbp	#
	.cfi_def_cfa_offset 16
	.cfi_offset 6, -16
	movq	%rsp, %rbp	#,
	.cfi_def_cfa_register 6
	movq	%rdi, -8(%rbp)	# instance, instance
	movl	%esi, -12(%rbp)	# mode, mode
	.loc 1 57 0
	nop
	popq	%rbp	#
	.cfi_def_cfa 7, 8
	ret
	.cfi_endproc
.LFE5:
	.size	usbVcpSetMode, .-usbVcpSetMode
	.section	.text.isUsbVcpTransmitBufferEmpty,"ax",@progbits
	.type	isUsbVcpTransmitBufferEmpty, @function
isUsbVcpTransmitBufferEmpty:
.LFB6:
	.loc 1 60 0
	.cfi_startproc
	pushq	%rbp	#
	.cfi_def_cfa_offset 16
	.cfi_offset 6, -16
	movq	%rsp, %rbp	#,
	.cfi_def_cfa_register 6
	movq	%rdi, -8(%rbp)	# instance, instance
	.loc 1 62 0
	movl	$1, %eax	#, D.4967
	.loc 1 63 0
	popq	%rbp	#
	.cfi_def_cfa 7, 8
	ret
	.cfi_endproc
.LFE6:
	.size	isUsbVcpTransmitBufferEmpty, .-isUsbVcpTransmitBufferEmpty
	.section	.text.usbVcpAvailable,"ax",@progbits
	.type	usbVcpAvailable, @function
usbVcpAvailable:
.LFB7:
	.loc 1 66 0
	.cfi_startproc
	pushq	%rbp	#
	.cfi_def_cfa_offset 16
	.cfi_offset 6, -16
	movq	%rsp, %rbp	#,
	.cfi_def_cfa_register 6
	subq	$16, %rsp	#,
	movq	%rdi, -8(%rbp)	# instance, instance
	.loc 1 68 0
	call	serial_waiting	#
	.loc 1 70 0
	leave
	.cfi_def_cfa 7, 8
	ret
	.cfi_endproc
.LFE7:
	.size	usbVcpAvailable, .-usbVcpAvailable
	.section	.text.usbVcpRead,"ax",@progbits
	.type	usbVcpRead, @function
usbVcpRead:
.LFB8:
	.loc 1 73 0
	.cfi_startproc
	pushq	%rbp	#
	.cfi_def_cfa_offset 16
	.cfi_offset 6, -16
	movq	%rsp, %rbp	#,
	.cfi_def_cfa_register 6
	subq	$32, %rsp	#,
	movq	%rdi, -24(%rbp)	# instance, instance
	.loc 1 73 0
	movq	%fs:40, %rax	#, tmp92
	movq	%rax, -8(%rbp)	# tmp92, D.4972
	xorl	%eax, %eax	# tmp92
	.loc 1 78 0
	leaq	-9(%rbp), %rax	#, tmp90
	movl	$1, %esi	#,
	movq	%rax, %rdi	# tmp90,
	call	usbRead	#
	movl	%eax, -16(%rbp)	# D.4970, len
	.loc 1 80 0
	movzbl	-9(%rbp), %eax	# buf, D.4971
	.loc 1 81 0
	movq	-8(%rbp), %rdx	# D.4972, tmp93
	xorq	%fs:40, %rdx	#, tmp93
	je	.L10	#,
	call	__stack_chk_fail	#
.L10:
	leave
	.cfi_def_cfa 7, 8
	ret
	.cfi_endproc
.LFE8:
	.size	usbVcpRead, .-usbVcpRead
	.section	.text.usbVcpWrite,"ax",@progbits
	.type	usbVcpWrite, @function
usbVcpWrite:
.LFB9:
	.loc 1 128 0
	.cfi_startproc
	pushq	%rbp	#
	.cfi_def_cfa_offset 16
	.cfi_offset 6, -16
	movq	%rsp, %rbp	#,
	.cfi_def_cfa_register 6
	subq	$16, %rsp	#,
	movq	%rdi, -8(%rbp)	# instance, instance
	movl	%esi, %eax	# c, tmp87
	movb	%al, -12(%rbp)	# tmp87, c
	.loc 1 129 0
	leaq	-12(%rbp), %rax	#, tmp88
	movl	$1, %esi	#,
	movq	%rax, %rdi	# tmp88,
	call	usbWrite	#
	.loc 1 130 0
	nop
	leave
	.cfi_def_cfa 7, 8
	ret
	.cfi_endproc
.LFE9:
	.size	usbVcpWrite, .-usbVcpWrite
	.section	.text.usbVcpBeginWrite,"ax",@progbits
	.type	usbVcpBeginWrite, @function
usbVcpBeginWrite:
.LFB10:
	.loc 1 133 0
	.cfi_startproc
	pushq	%rbp	#
	.cfi_def_cfa_offset 16
	.cfi_offset 6, -16
	movq	%rsp, %rbp	#,
	.cfi_def_cfa_register 6
	movq	%rdi, -8(%rbp)	# instance, instance
	.loc 1 134 0
	nop
	.loc 1 135 0
	popq	%rbp	#
	.cfi_def_cfa 7, 8
	ret
	.cfi_endproc
.LFE10:
	.size	usbVcpBeginWrite, .-usbVcpBeginWrite
	.section	.text.usbTxBytesFree,"ax",@progbits
	.globl	usbTxBytesFree
	.type	usbTxBytesFree, @function
usbTxBytesFree:
.LFB11:
	.loc 1 138 0
	.cfi_startproc
	pushq	%rbp	#
	.cfi_def_cfa_offset 16
	.cfi_offset 6, -16
	movq	%rsp, %rbp	#,
	.cfi_def_cfa_register 6
	.loc 1 140 0
	movl	$-1, %eax	#, D.4975
	.loc 1 141 0
	popq	%rbp	#
	.cfi_def_cfa 7, 8
	ret
	.cfi_endproc
.LFE11:
	.size	usbTxBytesFree, .-usbTxBytesFree
	.section	.rodata.usbVTable,"a",@progbits
	.align 32
	.type	usbVTable, @object
	.size	usbVTable, 80
usbVTable:
# serialWrite:
	.quad	usbVcpWrite
# serialTotalRxWaiting:
	.quad	usbVcpAvailable
# serialTotalTxFree:
	.quad	usbTxBytesFree
# serialRead:
	.quad	usbVcpRead
# serialSetBaudRate:
	.quad	usbVcpSetBaudRate
# isSerialTransmitBufferEmpty:
	.quad	isUsbVcpTransmitBufferEmpty
# setMode:
	.quad	usbVcpSetMode
# writeBuf:
	.quad	0
# beginWrite:
	.quad	0
# endWrite:
	.quad	0
	.section	.text.usbVcpOpen,"ax",@progbits
	.globl	usbVcpOpen
	.type	usbVcpOpen, @function
usbVcpOpen:
.LFB12:
	.loc 1 165 0
	.cfi_startproc
	pushq	%rbp	#
	.cfi_def_cfa_offset 16
	.cfi_offset 6, -16
	movq	%rsp, %rbp	#,
	.cfi_def_cfa_register 6
	subq	$16, %rsp	#,
	.loc 1 166 0
	call	usbInit	#
	movq	%rax, -8(%rbp)	# tmp89, s
	.loc 1 168 0
	movq	-8(%rbp), %rax	# s, D.4976
	.loc 1 169 0
	leave
	.cfi_def_cfa 7, 8
	ret
	.cfi_endproc
.LFE12:
	.size	usbVcpOpen, .-usbVcpOpen
	.section	.text.usbVcpGetBaudRate,"ax",@progbits
	.globl	usbVcpGetBaudRate
	.type	usbVcpGetBaudRate, @function
usbVcpGetBaudRate:
.LFB13:
	.loc 1 172 0
	.cfi_startproc
	pushq	%rbp	#
	.cfi_def_cfa_offset 16
	.cfi_offset 6, -16
	movq	%rsp, %rbp	#,
	.cfi_def_cfa_register 6
	subq	$16, %rsp	#,
	movq	%rdi, -8(%rbp)	# instance, instance
	.loc 1 174 0
	call	Virtual_Com_Port_GetBaudRate	#
	.loc 1 175 0
	leave
	.cfi_def_cfa 7, 8
	ret
	.cfi_endproc
.LFE13:
	.size	usbVcpGetBaudRate, .-usbVcpGetBaudRate
	.text
.Letext0:
	.file 2 "/usr/include/stdint.h"
	.file 3 "./src/main/drivers/serial.h"
	.file 4 "src/main/drivers/serial_usb_vcp.h"
	.file 5 "./src/main/target/edison/target.h"
	.section	.note.GNU-stack,"",@progbits
