	.file	"serial_uart.c"
# GNU C99 (Ubuntu 5.4.1-2ubuntu1~16.04) version 5.4.1 20160904 (x86_64-linux-gnu)
#	compiled by GNU C version 5.4.1 20160904, GMP version 6.1.0, MPFR version 3.1.4, MPC version 1.0.3
# GGC heuristics: --param ggc-min-expand=100 --param ggc-min-heapsize=131072
# options passed:  -fpreprocessed serial_uart.i -mtune=generic
# -march=x86-64 -g -std=gnu99 -ffunction-sections -fdata-sections
# -fverbose-asm -ffat-lto-objects -fstack-protector-strong -Wformat
# -Wformat-security
# options enabled:  -faggressive-loop-optimizations
# -fasynchronous-unwind-tables -fauto-inc-dec -fchkp-check-incomplete-type
# -fchkp-check-read -fchkp-check-write -fchkp-instrument-calls
# -fchkp-narrow-bounds -fchkp-optimize -fchkp-store-bounds
# -fchkp-use-static-bounds -fchkp-use-static-const-bounds
# -fchkp-use-wrappers -fcommon -fdata-sections -fdelete-null-pointer-checks
# -fdwarf2-cfi-asm -fearly-inlining -feliminate-unused-debug-types
# -ffunction-cse -ffunction-sections -fgcse-lm -fgnu-runtime -fgnu-unique
# -fident -finline-atomics -fira-hoist-pressure -fira-share-save-slots
# -fira-share-spill-slots -fivopts -fkeep-static-consts
# -fleading-underscore -flifetime-dse -flto-odr-type-merging -fmath-errno
# -fmerge-debug-strings -fpeephole -fprefetch-loop-arrays
# -freg-struct-return -fsched-critical-path-heuristic
# -fsched-dep-count-heuristic -fsched-group-heuristic -fsched-interblock
# -fsched-last-insn-heuristic -fsched-rank-heuristic -fsched-spec
# -fsched-spec-insn-heuristic -fsched-stalled-insns-dep -fschedule-fusion
# -fsemantic-interposition -fshow-column -fsigned-zeros
# -fsplit-ivs-in-unroller -fstack-protector-strong -fstdarg-opt
# -fstrict-volatile-bitfields -fsync-libcalls -ftrapping-math
# -ftree-coalesce-vars -ftree-cselim -ftree-forwprop -ftree-loop-if-convert
# -ftree-loop-im -ftree-loop-ivcanon -ftree-loop-optimize
# -ftree-parallelize-loops= -ftree-phiprop -ftree-reassoc -ftree-scev-cprop
# -funit-at-a-time -funwind-tables -fverbose-asm -fzero-initialized-in-bss
# -m128bit-long-double -m64 -m80387 -malign-stringops
# -mavx256-split-unaligned-load -mavx256-split-unaligned-store
# -mfancy-math-387 -mfp-ret-in-387 -mfxsr -mglibc -mieee-fp
# -mlong-double-80 -mmmx -mno-sse4 -mpush-args -mred-zone -msse -msse2
# -mtls-direct-seg-refs -mvzeroupper

	.text
.Ltext0:
	.comm	U_ID_0,4,4
	.comm	U_ID_1,4,4
	.comm	U_ID_2,4,4
	.comm	receiveLength,4,4
	.comm	USB,88,32
	.globl	linecoding
	.section	.data.linecoding,"aw",@progbits
	.align 8
	.type	linecoding, @object
	.size	linecoding, 8
linecoding:
# bitrate:
	.long	115200
# format:
	.byte	0
# paritytype:
	.byte	0
# datatype:
	.byte	8
	.zero	1
	.globl	portname
	.section	.data.portname,"aw",@progbits
	.align 16
	.type	portname, @object
	.size	portname, 20
portname:
	.string	"/dev/ttyMFD2"
	.zero	7
	.comm	rdlen,4,4
	.comm	usb_port,72,32
	.section	.rodata.usbTable,"a",@progbits
	.align 32
	.type	usbTable, @object
	.size	usbTable, 80
usbTable:
# serialWrite:
	.quad	usbVcpWrite
# serialTotalRxWaiting:
	.quad	serial_waiting
# serialTotalTxFree:
	.quad	usbTxBytesFree
# serialRead:
	.quad	usbVcpRead
# serialSetBaudRate:
	.quad	usbVcpSetBaudRate
# isSerialTransmitBufferEmpty:
	.quad	usb_txbuffer_empty
# setMode:
	.quad	usbVcpSetMode
# writeBuf:
	.quad	0
# beginWrite:
	.quad	0
# endWrite:
	.quad	0
	.section	.text.usartInitAllIOSignals,"ax",@progbits
	.globl	usartInitAllIOSignals
	.type	usartInitAllIOSignals, @function
usartInitAllIOSignals:
.LFB4:
	.file 1 "src/main/drivers/serial_uart.c"
	.loc 1 88 0
	.cfi_startproc
	pushq	%rbp	#
	.cfi_def_cfa_offset 16
	.cfi_offset 6, -16
	movq	%rsp, %rbp	#,
	.cfi_def_cfa_register 6
	.loc 1 90 0
	movl	$0, USB+76(%rip)	#, USB.deviceState
	.loc 1 91 0
	movq	usb_port(%rip), %rax	# usb_port, tmp89
	movq	%rax, USB(%rip)	# tmp89, USB.port
	movq	usb_port+8(%rip), %rax	# usb_port, tmp90
	movq	%rax, USB+8(%rip)	# tmp90, USB.port
	movq	usb_port+16(%rip), %rax	# usb_port, tmp91
	movq	%rax, USB+16(%rip)	# tmp91, USB.port
	movq	usb_port+24(%rip), %rax	# usb_port, tmp92
	movq	%rax, USB+24(%rip)	# tmp92, USB.port
	movq	usb_port+32(%rip), %rax	# usb_port, tmp93
	movq	%rax, USB+32(%rip)	# tmp93, USB.port
	movq	usb_port+40(%rip), %rax	# usb_port, tmp94
	movq	%rax, USB+40(%rip)	# tmp94, USB.port
	movq	usb_port+48(%rip), %rax	# usb_port, tmp95
	movq	%rax, USB+48(%rip)	# tmp95, USB.port
	movq	usb_port+56(%rip), %rax	# usb_port, tmp96
	movq	%rax, USB+56(%rip)	# tmp96, USB.port
	movq	usb_port+64(%rip), %rax	# usb_port, tmp97
	movq	%rax, USB+64(%rip)	# tmp97, USB.port
	.loc 1 92 0
	movq	$usbTable, USB(%rip)	#, USB.port.vTable
	.loc 1 95 0
	nop
	popq	%rbp	#
	.cfi_def_cfa 7, 8
	ret
	.cfi_endproc
.LFE4:
	.size	usartInitAllIOSignals, .-usartInitAllIOSignals
	.section	.text.usbInit,"ax",@progbits
	.globl	usbInit
	.type	usbInit, @function
usbInit:
.LFB5:
	.loc 1 99 0
	.cfi_startproc
	pushq	%rbp	#
	.cfi_def_cfa_offset 16
	.cfi_offset 6, -16
	movq	%rsp, %rbp	#,
	.cfi_def_cfa_register 6
	subq	$16, %rsp	#,
	.loc 1 100 0
	call	usbOpen	#
	movl	%eax, -4(%rbp)	# tmp89, fd
	.loc 1 102 0
	movl	-4(%rbp), %eax	# fd, tmp90
	movl	$2, %esi	#,
	movl	%eax, %edi	# tmp90,
	call	tcflush	#
	.loc 1 103 0
	movl	-4(%rbp), %eax	# fd, tmp91
	movl	%eax, %edi	# tmp91,
	call	SetUsbAttributes	#
	.loc 1 104 0
	movl	$USB, %eax	#, D.5128
	.loc 1 105 0
	leave
	.cfi_def_cfa 7, 8
	ret
	.cfi_endproc
.LFE5:
	.size	usbInit, .-usbInit
	.section	.rodata
.LC0:
	.string	"Error opening %s: %s\n"
	.section	.text.usbOpen,"ax",@progbits
	.globl	usbOpen
	.type	usbOpen, @function
usbOpen:
.LFB6:
	.loc 1 109 0
	.cfi_startproc
	pushq	%rbp	#
	.cfi_def_cfa_offset 16
	.cfi_offset 6, -16
	movq	%rsp, %rbp	#,
	.cfi_def_cfa_register 6
	subq	$16, %rsp	#,
	.loc 1 110 0
	movl	$1054978, %esi	#,
	movl	$portname, %edi	#,
	movl	$0, %eax	#,
	call	open	#
	movl	%eax, -4(%rbp)	# tmp92, fd
	.loc 1 111 0
	cmpl	$0, -4(%rbp)	#, fd
	jns	.L5	#,
	.loc 1 112 0
	call	__errno_location	#
	.loc 1 112 0
	movl	(%rax), %eax	# *_7, D.5129
	movl	%eax, %edi	# D.5129,
	call	strerror	#
	movq	%rax, %rdx	# D.5131,
	movl	$portname, %esi	#,
	movl	$.LC0, %edi	#,
	movl	$0, %eax	#,
	call	printf	#
	.loc 1 113 0
	movl	$1, %edi	#,
	call	exit	#
.L5:
	.loc 1 115 0
	movl	-4(%rbp), %eax	# fd, tmp93
	movl	%eax, USB+72(%rip)	# tmp93, USB.fd
	.loc 1 116 0
	movl	$5, USB+76(%rip)	#, USB.deviceState
	.loc 1 117 0
	movl	-4(%rbp), %eax	# fd, D.5129
	.loc 1 118 0
	leave
	.cfi_def_cfa 7, 8
	ret
	.cfi_endproc
.LFE6:
	.size	usbOpen, .-usbOpen
	.section	.rodata
.LC1:
	.string	"Error from tcgetattr: %s\n"
.LC2:
	.string	"Error from tcsetattr: %s\n"
	.section	.text.SetUsbAttributes,"ax",@progbits
	.globl	SetUsbAttributes
	.type	SetUsbAttributes, @function
SetUsbAttributes:
.LFB7:
	.loc 1 122 0
	.cfi_startproc
	pushq	%rbp	#
	.cfi_def_cfa_offset 16
	.cfi_offset 6, -16
	movq	%rsp, %rbp	#,
	.cfi_def_cfa_register 6
	subq	$96, %rsp	#,
	movl	%edi, -84(%rbp)	# fd, fd
	.loc 1 122 0
	movq	%fs:40, %rax	#, tmp115
	movq	%rax, -8(%rbp)	# tmp115, D.5137
	xorl	%eax, %eax	# tmp115
	.loc 1 125 0
	leaq	-80(%rbp), %rdx	#, tmp109
	movl	-84(%rbp), %eax	# fd, tmp110
	movq	%rdx, %rsi	# tmp109,
	movl	%eax, %edi	# tmp110,
	call	tcgetattr	#
	testl	%eax, %eax	# D.5133
	jns	.L8	#,
	.loc 1 126 0
	call	__errno_location	#
	.loc 1 126 0
	movl	(%rax), %eax	# *_36, D.5133
	movl	%eax, %edi	# D.5133,
	call	strerror	#
	movq	%rax, %rsi	# D.5136,
	movl	$.LC1, %edi	#,
	movl	$0, %eax	#,
	call	printf	#
	.loc 1 127 0
	movl	$1, %edi	#,
	call	exit	#
.L8:
	.loc 1 130 0
	movl	linecoding(%rip), %edx	# linecoding.bitrate, D.5134
	leaq	-80(%rbp), %rax	#, tmp111
	movl	%edx, %esi	# D.5134,
	movq	%rax, %rdi	# tmp111,
	call	cfsetospeed	#
	.loc 1 131 0
	movl	linecoding(%rip), %edx	# linecoding.bitrate, D.5134
	leaq	-80(%rbp), %rax	#, tmp112
	movl	%edx, %esi	# D.5134,
	movq	%rax, %rdi	# tmp112,
	call	cfsetispeed	#
	.loc 1 136 0
	movl	-72(%rbp), %eax	# tty.c_cflag, D.5134
	orl	$2176, %eax	#, D.5134
	movl	%eax, -72(%rbp)	# D.5134, tty.c_cflag
	.loc 1 137 0
	movl	-72(%rbp), %eax	# tty.c_cflag, D.5134
	andl	$-49, %eax	#, D.5134
	movl	%eax, -72(%rbp)	# D.5134, tty.c_cflag
	.loc 1 138 0
	movl	-72(%rbp), %eax	# tty.c_cflag, D.5134
	orl	$48, %eax	#, D.5134
	movl	%eax, -72(%rbp)	# D.5134, tty.c_cflag
	.loc 1 139 0
	movl	-72(%rbp), %eax	# tty.c_cflag, D.5134
	andb	$254, %ah	#, D.5134
	movl	%eax, -72(%rbp)	# D.5134, tty.c_cflag
	.loc 1 140 0
	movl	-72(%rbp), %eax	# tty.c_cflag, D.5134
	andl	$-65, %eax	#, D.5134
	movl	%eax, -72(%rbp)	# D.5134, tty.c_cflag
	.loc 1 141 0
	movl	-72(%rbp), %eax	# tty.c_cflag, D.5134
	andl	$2147483647, %eax	#, D.5134
	movl	%eax, -72(%rbp)	# D.5134, tty.c_cflag
	.loc 1 143 0
	leaq	-80(%rbp), %rdx	#, tmp113
	movl	-84(%rbp), %eax	# fd, tmp114
	movl	$0, %esi	#,
	movl	%eax, %edi	# tmp114,
	call	tcsetattr	#
	testl	%eax, %eax	# D.5133
	je	.L12	#,
	.loc 1 144 0
	call	__errno_location	#
	.loc 1 144 0
	movl	(%rax), %eax	# *_30, D.5133
	movl	%eax, %edi	# D.5133,
	call	strerror	#
	movq	%rax, %rsi	# D.5136,
	movl	$.LC2, %edi	#,
	movl	$0, %eax	#,
	call	printf	#
	.loc 1 145 0
	movl	$1, %edi	#,
	call	exit	#
.L12:
	.loc 1 147 0
	nop
	.loc 1 149 0
	movq	-8(%rbp), %rax	# D.5137, tmp116
	xorq	%fs:40, %rax	#, tmp116
	je	.L11	#,
	call	__stack_chk_fail	#
.L11:
	leave
	.cfi_def_cfa 7, 8
	ret
	.cfi_endproc
.LFE7:
	.size	SetUsbAttributes, .-SetUsbAttributes
	.section	.rodata
.LC3:
	.string	"USB not connected\t%d\n"
	.section	.text.usbWrite,"ax",@progbits
	.globl	usbWrite
	.type	usbWrite, @function
usbWrite:
.LFB8:
	.loc 1 153 0
	.cfi_startproc
	pushq	%rbp	#
	.cfi_def_cfa_offset 16
	.cfi_offset 6, -16
	movq	%rsp, %rbp	#,
	.cfi_def_cfa_register 6
	subq	$32, %rsp	#,
	movq	%rdi, -24(%rbp)	# str, str
	movl	%esi, -28(%rbp)	# len, len
	.loc 1 155 0
	call	usbIsConnected	#
	testb	%al, %al	# D.5143
	jne	.L14	#,
	.loc 1 157 0
	movl	USB+76(%rip), %eax	# USB.deviceState, D.5144
	movl	%eax, %esi	# D.5144,
	movl	$.LC3, %edi	#,
	movl	$0, %eax	#,
	call	printf	#
	.loc 1 158 0
	movl	$-1, %eax	#, D.5142
	jmp	.L15	#
.L14:
	.loc 1 161 0
	movl	-28(%rbp), %eax	# len, tmp94
	movslq	%eax, %rdx	# tmp94, D.5145
	movl	USB+72(%rip), %eax	# USB.fd, D.5144
	movq	-24(%rbp), %rcx	# str, tmp95
	movq	%rcx, %rsi	# tmp95,
	movl	%eax, %edi	# D.5144,
	call	write	#
	movl	%eax, -4(%rbp)	# D.5146, wlen
	.loc 1 162 0
	movl	-4(%rbp), %eax	# wlen, D.5142
.L15:
	.loc 1 163 0
	leave
	.cfi_def_cfa 7, 8
	ret
	.cfi_endproc
.LFE8:
	.size	usbWrite, .-usbWrite
	.section	.text.usbRead,"ax",@progbits
	.globl	usbRead
	.type	usbRead, @function
usbRead:
.LFB9:
	.loc 1 167 0
	.cfi_startproc
	pushq	%rbp	#
	.cfi_def_cfa_offset 16
	.cfi_offset 6, -16
	movq	%rsp, %rbp	#,
	.cfi_def_cfa_register 6
	subq	$192, %rsp	#,
	movq	%rdi, -184(%rbp)	# buf, buf
	movl	%esi, -188(%rbp)	# len, len
	.loc 1 167 0
	movq	%fs:40, %rax	#, tmp145
	movq	%rax, -8(%rbp)	# tmp145, D.5152
	xorl	%eax, %eax	# tmp145
.LBB2:
	.loc 1 169 0
	movl	$0, %eax	#, tmp112
	movl	$16, %ecx	#, tmp113
	leaq	-144(%rbp), %rdx	#, tmp114
	movq	%rdx, %rdi	# tmp114, tmp114
#APP
# 169 "src/main/drivers/serial_uart.c" 1
	cld; rep; stosq
# 0 "" 2
#NO_APP
	movl	%edi, %eax	# tmp114, __d1
	movl	%ecx, %edx	# tmp113, __d0
	movl	%edx, -164(%rbp)	# __d0, __d0
	movl	%eax, -160(%rbp)	# __d1, __d1
.LBE2:
	.loc 1 170 0
	movl	USB+72(%rip), %eax	# USB.fd, D.5149
	.loc 1 170 0
	leal	63(%rax), %edx	#, tmp116
	testl	%eax, %eax	# tmp115
	cmovs	%edx, %eax	# tmp116,, tmp115
	sarl	$6, %eax	#, tmp117
	movl	%eax, %esi	# tmp117, D.5149
	movslq	%esi, %rax	# D.5149, tmp118
	movq	-144(%rbp,%rax,8), %rdi	# readset.__fds_bits, D.5150
	.loc 1 170 0
	movl	USB+72(%rip), %eax	# USB.fd, D.5149
	.loc 1 170 0
	cltd
	shrl	$26, %edx	#, tmp120
	addl	%edx, %eax	# tmp120, tmp121
	andl	$63, %eax	#, tmp122
	subl	%edx, %eax	# tmp120, tmp123
	.loc 1 170 0
	movl	$1, %edx	#, tmp124
	movl	%eax, %ecx	# D.5149, tmp150
	salq	%cl, %rdx	# tmp150, D.5151
	movq	%rdx, %rax	# D.5151, D.5151
	orq	%rax, %rdi	# D.5150, D.5150
	movq	%rdi, %rdx	# D.5150, D.5150
	movslq	%esi, %rax	# D.5149, tmp125
	movq	%rdx, -144(%rbp,%rax,8)	# D.5150, readset.__fds_bits
	.loc 1 171 0
	movl	$1, -156(%rbp)	#, result
.L21:
	.loc 1 175 0
	cmpl	$-1, -156(%rbp)	#, result
	jne	.L17	#,
.LBB3:
	.loc 1 177 0
	movl	$0, %eax	#, tmp128
	movl	$16, %ecx	#, tmp129
	leaq	-144(%rbp), %rdx	#, tmp130
	movq	%rdx, %rdi	# tmp130, tmp130
#APP
# 177 "src/main/drivers/serial_uart.c" 1
	cld; rep; stosq
# 0 "" 2
#NO_APP
	movl	%edi, %eax	# tmp130, __d1
	movl	%ecx, %edx	# tmp129, __d0
	movl	%edx, -152(%rbp)	# __d0, __d0
	movl	%eax, -148(%rbp)	# __d1, __d1
.LBE3:
	.loc 1 178 0
	movl	USB+72(%rip), %eax	# USB.fd, D.5149
	.loc 1 178 0
	leal	63(%rax), %edx	#, tmp132
	testl	%eax, %eax	# tmp131
	cmovs	%edx, %eax	# tmp132,, tmp131
	sarl	$6, %eax	#, tmp133
	movl	%eax, %esi	# tmp133, D.5149
	movslq	%esi, %rax	# D.5149, tmp134
	movq	-144(%rbp,%rax,8), %rdi	# readset.__fds_bits, D.5150
	.loc 1 178 0
	movl	USB+72(%rip), %eax	# USB.fd, D.5149
	.loc 1 178 0
	cltd
	shrl	$26, %edx	#, tmp136
	addl	%edx, %eax	# tmp136, tmp137
	andl	$63, %eax	#, tmp138
	subl	%edx, %eax	# tmp136, tmp139
	.loc 1 178 0
	movl	$1, %edx	#, tmp140
	movl	%eax, %ecx	# D.5149, tmp155
	salq	%cl, %rdx	# tmp155, D.5151
	movq	%rdx, %rax	# D.5151, D.5151
	orq	%rax, %rdi	# D.5150, D.5150
	movq	%rdi, %rdx	# D.5150, D.5150
	movslq	%esi, %rax	# D.5149, tmp141
	movq	%rdx, -144(%rbp,%rax,8)	# D.5150, readset.__fds_bits
	jmp	.L21	#
.L17:
	.loc 1 180 0
	cmpl	$0, -156(%rbp)	#, result
	jle	.L21	#,
	.loc 1 182 0
	movl	-188(%rbp), %eax	# len, tmp142
	movslq	%eax, %rdx	# tmp142, D.5151
	movl	USB+72(%rip), %eax	# USB.fd, D.5149
	movq	-184(%rbp), %rcx	# buf, tmp143
	movq	%rcx, %rsi	# tmp143,
	movl	%eax, %edi	# D.5149,
	call	read	#
	movl	%eax, rdlen(%rip)	# D.5149, rdlen
	.loc 1 183 0
	movl	rdlen(%rip), %eax	# rdlen, D.5149
	testl	%eax, %eax	# D.5149
	jle	.L19	#,
	.loc 1 186 0
	movl	-188(%rbp), %eax	# len, D.5148
	jmp	.L22	#
.L19:
	.loc 1 191 0
	movl	$-1, %eax	#, D.5148
.L22:
	.loc 1 195 0 discriminator 1
	movq	-8(%rbp), %rsi	# D.5152, tmp146
	xorq	%fs:40, %rsi	#, tmp146
	je	.L23	#,
	.loc 1 195 0 is_stmt 0
	call	__stack_chk_fail	#
.L23:
	leave
	.cfi_def_cfa 7, 8
	ret
	.cfi_endproc
.LFE9:
	.size	usbRead, .-usbRead
	.section	.text.usbIsConnected,"ax",@progbits
	.globl	usbIsConnected
	.type	usbIsConnected, @function
usbIsConnected:
.LFB10:
	.loc 1 198 0 is_stmt 1
	.cfi_startproc
	pushq	%rbp	#
	.cfi_def_cfa_offset 16
	.cfi_offset 6, -16
	movq	%rsp, %rbp	#,
	.cfi_def_cfa_register 6
	.loc 1 199 0
	movl	USB+76(%rip), %eax	# USB.deviceState, D.5158
	testl	%eax, %eax	# D.5158
	je	.L25	#,
	.loc 1 200 0
	movl	$1, %eax	#, D.5157
	jmp	.L26	#
.L25:
	.loc 1 202 0
	movl	$0, %eax	#, D.5157
.L26:
	.loc 1 203 0
	popq	%rbp	#
	.cfi_def_cfa 7, 8
	ret
	.cfi_endproc
.LFE10:
	.size	usbIsConnected, .-usbIsConnected
	.section	.text.usbIsConfigured,"ax",@progbits
	.globl	usbIsConfigured
	.type	usbIsConfigured, @function
usbIsConfigured:
.LFB11:
	.loc 1 206 0
	.cfi_startproc
	pushq	%rbp	#
	.cfi_def_cfa_offset 16
	.cfi_offset 6, -16
	movq	%rsp, %rbp	#,
	.cfi_def_cfa_register 6
	.loc 1 207 0
	movl	USB+76(%rip), %eax	# USB.deviceState, D.5159
	cmpl	$5, %eax	#, D.5159
	sete	%al	#, D.5160
	.loc 1 208 0
	popq	%rbp	#
	.cfi_def_cfa 7, 8
	ret
	.cfi_endproc
.LFE11:
	.size	usbIsConfigured, .-usbIsConfigured
	.section	.text.EP3_OUT_Callback,"ax",@progbits
	.globl	EP3_OUT_Callback
	.type	EP3_OUT_Callback, @function
EP3_OUT_Callback:
.LFB12:
	.loc 1 211 0
	.cfi_startproc
	pushq	%rbp	#
	.cfi_def_cfa_offset 16
	.cfi_offset 6, -16
	movq	%rsp, %rbp	#,
	.cfi_def_cfa_register 6
	.loc 1 212 0
	movl	rdlen(%rip), %eax	# rdlen, D.5162
	movl	%eax, receiveLength(%rip)	# D.5163, receiveLength
	.loc 1 214 0
	nop
	popq	%rbp	#
	.cfi_def_cfa 7, 8
	ret
	.cfi_endproc
.LFE12:
	.size	EP3_OUT_Callback, .-EP3_OUT_Callback
	.section	.text.Virtual_Com_Port_GetBaudRate,"ax",@progbits
	.globl	Virtual_Com_Port_GetBaudRate
	.type	Virtual_Com_Port_GetBaudRate, @function
Virtual_Com_Port_GetBaudRate:
.LFB13:
	.loc 1 217 0
	.cfi_startproc
	pushq	%rbp	#
	.cfi_def_cfa_offset 16
	.cfi_offset 6, -16
	movq	%rsp, %rbp	#,
	.cfi_def_cfa_register 6
	.loc 1 218 0
	movl	linecoding(%rip), %eax	# linecoding.bitrate, D.5164
	.loc 1 219 0
	popq	%rbp	#
	.cfi_def_cfa 7, 8
	ret
	.cfi_endproc
.LFE13:
	.size	Virtual_Com_Port_GetBaudRate, .-Virtual_Com_Port_GetBaudRate
	.section	.text.usb_txbuffer_empty,"ax",@progbits
	.globl	usb_txbuffer_empty
	.type	usb_txbuffer_empty, @function
usb_txbuffer_empty:
.LFB14:
	.loc 1 222 0
	.cfi_startproc
	pushq	%rbp	#
	.cfi_def_cfa_offset 16
	.cfi_offset 6, -16
	movq	%rsp, %rbp	#,
	.cfi_def_cfa_register 6
	movq	%rdi, -8(%rbp)	# instance, instance
	.loc 1 223 0
	movl	$1, %eax	#, D.5165
	.loc 1 224 0
	popq	%rbp	#
	.cfi_def_cfa 7, 8
	ret
	.cfi_endproc
.LFE14:
	.size	usb_txbuffer_empty, .-usb_txbuffer_empty
	.section	.text.usb_txbuffer_flush,"ax",@progbits
	.globl	usb_txbuffer_flush
	.type	usb_txbuffer_flush, @function
usb_txbuffer_flush:
.LFB15:
	.loc 1 227 0
	.cfi_startproc
	pushq	%rbp	#
	.cfi_def_cfa_offset 16
	.cfi_offset 6, -16
	movq	%rsp, %rbp	#,
	.cfi_def_cfa_register 6
	movq	%rdi, -8(%rbp)	# instance, instance
	.loc 1 228 0
	nop
	.loc 1 229 0
	popq	%rbp	#
	.cfi_def_cfa 7, 8
	ret
	.cfi_endproc
.LFE15:
	.size	usb_txbuffer_flush, .-usb_txbuffer_flush
	.section	.text.serial_waiting,"ax",@progbits
	.globl	serial_waiting
	.type	serial_waiting, @function
serial_waiting:
.LFB16:
	.loc 1 232 0
	.cfi_startproc
	pushq	%rbp	#
	.cfi_def_cfa_offset 16
	.cfi_offset 6, -16
	movq	%rsp, %rbp	#,
	.cfi_def_cfa_register 6
	subq	$192, %rsp	#,
	movq	%rdi, -184(%rbp)	# instance, instance
	.loc 1 232 0
	movq	%fs:40, %rax	#, tmp120
	movq	%rax, -8(%rbp)	# tmp120, D.5170
	xorl	%eax, %eax	# tmp120
.LBB4:
	.loc 1 235 0
	movl	$0, %eax	#, tmp102
	movl	$16, %ecx	#, tmp103
	leaq	-144(%rbp), %rdx	#, tmp104
	movq	%rdx, %rdi	# tmp104, tmp104
#APP
# 235 "src/main/drivers/serial_uart.c" 1
	cld; rep; stosq
# 0 "" 2
#NO_APP
	movl	%edi, %eax	# tmp104, __d1
	movl	%ecx, %edx	# tmp103, __d0
	movl	%edx, -172(%rbp)	# __d0, __d0
	movl	%eax, -168(%rbp)	# __d1, __d1
.LBE4:
	.loc 1 236 0
	movl	USB+72(%rip), %eax	# USB.fd, D.5166
	.loc 1 236 0
	leal	63(%rax), %edx	#, tmp106
	testl	%eax, %eax	# tmp105
	cmovs	%edx, %eax	# tmp106,, tmp105
	sarl	$6, %eax	#, tmp107
	movl	%eax, %esi	# tmp107, D.5166
	movslq	%esi, %rax	# D.5166, tmp108
	movq	-144(%rbp,%rax,8), %rdi	# readset.__fds_bits, D.5167
	.loc 1 236 0
	movl	USB+72(%rip), %eax	# USB.fd, D.5166
	.loc 1 236 0
	cltd
	shrl	$26, %edx	#, tmp110
	addl	%edx, %eax	# tmp110, tmp111
	andl	$63, %eax	#, tmp112
	subl	%edx, %eax	# tmp110, tmp113
	.loc 1 236 0
	movl	$1, %edx	#, tmp114
	movl	%eax, %ecx	# D.5166, tmp125
	salq	%cl, %rdx	# tmp125, D.5168
	movq	%rdx, %rax	# D.5168, D.5168
	orq	%rax, %rdi	# D.5167, D.5167
	movq	%rdi, %rdx	# D.5167, D.5167
	movslq	%esi, %rax	# D.5166, tmp115
	movq	%rdx, -144(%rbp,%rax,8)	# D.5167, readset.__fds_bits
	.loc 1 239 0
	movq	$1, -160(%rbp)	#, tv.tv_sec
	movq	$1000, -152(%rbp)	#, tv.tv_usec
	.loc 1 241 0
	movl	USB+72(%rip), %eax	# USB.fd, D.5166
	leal	1(%rax), %edi	#, D.5166
	leaq	-160(%rbp), %rdx	#, tmp116
	leaq	-144(%rbp), %rax	#, tmp117
	movq	%rdx, %r8	# tmp116,
	movl	$0, %ecx	#,
	movl	$0, %edx	#,
	movq	%rax, %rsi	# tmp117,
	call	select	#
	movl	%eax, -164(%rbp)	# D.5166, result
	.loc 1 245 0
	movl	-164(%rbp), %eax	# result, tmp118
	.loc 1 246 0
	movq	-8(%rbp), %rsi	# D.5170, tmp121
	xorq	%fs:40, %rsi	#, tmp121
	je	.L38	#,
	call	__stack_chk_fail	#
.L38:
	leave
	.cfi_def_cfa 7, 8
	ret
	.cfi_endproc
.LFE16:
	.size	serial_waiting, .-serial_waiting
	.section	.text.usbVcpWrite,"ax",@progbits
	.type	usbVcpWrite, @function
usbVcpWrite:
.LFB17:
	.loc 1 253 0
	.cfi_startproc
	pushq	%rbp	#
	.cfi_def_cfa_offset 16
	.cfi_offset 6, -16
	movq	%rsp, %rbp	#,
	.cfi_def_cfa_register 6
	subq	$16, %rsp	#,
	movq	%rdi, -8(%rbp)	# instance, instance
	movl	%esi, %eax	# c, tmp87
	movb	%al, -12(%rbp)	# tmp87, c
	.loc 1 254 0
	leaq	-12(%rbp), %rax	#, tmp88
	movl	$1, %esi	#,
	movq	%rax, %rdi	# tmp88,
	call	usbWrite	#
	.loc 1 255 0
	nop
	leave
	.cfi_def_cfa 7, 8
	ret
	.cfi_endproc
.LFE17:
	.size	usbVcpWrite, .-usbVcpWrite
	.section	.text.usbTxBytesFree,"ax",@progbits
	.globl	usbTxBytesFree
	.type	usbTxBytesFree, @function
usbTxBytesFree:
.LFB18:
	.loc 1 259 0
	.cfi_startproc
	pushq	%rbp	#
	.cfi_def_cfa_offset 16
	.cfi_offset 6, -16
	movq	%rsp, %rbp	#,
	.cfi_def_cfa_register 6
	movq	%rdi, -8(%rbp)	# instance, instance
	.loc 1 262 0
	movl	$-1, %eax	#, D.5173
	.loc 1 263 0
	popq	%rbp	#
	.cfi_def_cfa 7, 8
	ret
	.cfi_endproc
.LFE18:
	.size	usbTxBytesFree, .-usbTxBytesFree
	.section	.text.usbVcpRead,"ax",@progbits
	.type	usbVcpRead, @function
usbVcpRead:
.LFB19:
	.loc 1 266 0
	.cfi_startproc
	pushq	%rbp	#
	.cfi_def_cfa_offset 16
	.cfi_offset 6, -16
	movq	%rsp, %rbp	#,
	.cfi_def_cfa_register 6
	subq	$32, %rsp	#,
	movq	%rdi, -24(%rbp)	# instance, instance
	.loc 1 266 0
	movq	%fs:40, %rax	#, tmp92
	movq	%rax, -8(%rbp)	# tmp92, D.5175
	xorl	%eax, %eax	# tmp92
	.loc 1 271 0
	leaq	-13(%rbp), %rax	#, tmp89
	movl	$1, %esi	#,
	movq	%rax, %rdi	# tmp89,
	call	usbRead	#
	movl	%eax, -12(%rbp)	# tmp90, len
	.loc 1 273 0
	movzbl	-13(%rbp), %eax	# buf, D.5174
	.loc 1 274 0
	movq	-8(%rbp), %rdx	# D.5175, tmp93
	xorq	%fs:40, %rdx	#, tmp93
	je	.L44	#,
	call	__stack_chk_fail	#
.L44:
	leave
	.cfi_def_cfa 7, 8
	ret
	.cfi_endproc
.LFE19:
	.size	usbVcpRead, .-usbVcpRead
	.section	.text.usbVcpSetBaudRate,"ax",@progbits
	.type	usbVcpSetBaudRate, @function
usbVcpSetBaudRate:
.LFB20:
	.loc 1 277 0
	.cfi_startproc
	pushq	%rbp	#
	.cfi_def_cfa_offset 16
	.cfi_offset 6, -16
	movq	%rsp, %rbp	#,
	.cfi_def_cfa_register 6
	movq	%rdi, -8(%rbp)	# instance, instance
	movl	%esi, -12(%rbp)	# baudRate, baudRate
	.loc 1 280 0
	nop
	.loc 1 282 0
	popq	%rbp	#
	.cfi_def_cfa 7, 8
	ret
	.cfi_endproc
.LFE20:
	.size	usbVcpSetBaudRate, .-usbVcpSetBaudRate
	.section	.text.usbVcpSetMode,"ax",@progbits
	.type	usbVcpSetMode, @function
usbVcpSetMode:
.LFB21:
	.loc 1 285 0
	.cfi_startproc
	pushq	%rbp	#
	.cfi_def_cfa_offset 16
	.cfi_offset 6, -16
	movq	%rsp, %rbp	#,
	.cfi_def_cfa_register 6
	movq	%rdi, -8(%rbp)	# instance, instance
	movl	%esi, -12(%rbp)	# mode, mode
	.loc 1 290 0
	nop
	popq	%rbp	#
	.cfi_def_cfa 7, 8
	ret
	.cfi_endproc
.LFE21:
	.size	usbVcpSetMode, .-usbVcpSetMode
	.section	.text.usbVcpOpen,"ax",@progbits
	.globl	usbVcpOpen
	.type	usbVcpOpen, @function
usbVcpOpen:
.LFB22:
	.loc 1 293 0
	.cfi_startproc
	pushq	%rbp	#
	.cfi_def_cfa_offset 16
	.cfi_offset 6, -16
	movq	%rsp, %rbp	#,
	.cfi_def_cfa_register 6
	subq	$16, %rsp	#,
	.loc 1 294 0
	call	usbInit	#
	movq	%rax, -8(%rbp)	# tmp89, s
	.loc 1 296 0
	movq	-8(%rbp), %rax	# s, D.5176
	.loc 1 297 0
	leave
	.cfi_def_cfa 7, 8
	ret
	.cfi_endproc
.LFE22:
	.size	usbVcpOpen, .-usbVcpOpen
	.text
.Letext0:
	.file 2 "/usr/include/stdint.h"
	.file 3 "/usr/include/x86_64-linux-gnu/bits/types.h"
	.file 4 "/usr/include/x86_64-linux-gnu/bits/time.h"
	.file 5 "/usr/include/x86_64-linux-gnu/sys/select.h"
	.file 6 "/usr/include/x86_64-linux-gnu/bits/termios.h"
	.file 7 "./src/main/drivers/serial.h"
	.file 8 "src/main/drivers/serial_uart.h"
	.file 9 "./src/main/target/edison/target.h"
	.section	.note.GNU-stack,"",@progbits
