	.file	"SFE_LSM9DS0.c"
# GNU C99 (Ubuntu 5.4.1-2ubuntu1~16.04) version 5.4.1 20160904 (x86_64-linux-gnu)
#	compiled by GNU C version 5.4.1 20160904, GMP version 6.1.0, MPFR version 3.1.4, MPC version 1.0.3
# GGC heuristics: --param ggc-min-expand=100 --param ggc-min-heapsize=131072
# options passed:  -fpreprocessed SFE_LSM9DS0.i -mtune=generic
# -march=x86-64 -g -std=gnu99 -ffunction-sections -fdata-sections
# -fverbose-asm -ffat-lto-objects -fstack-protector-strong -Wformat
# -Wformat-security
# options enabled:  -faggressive-loop-optimizations
# -fasynchronous-unwind-tables -fauto-inc-dec -fchkp-check-incomplete-type
# -fchkp-check-read -fchkp-check-write -fchkp-instrument-calls
# -fchkp-narrow-bounds -fchkp-optimize -fchkp-store-bounds
# -fchkp-use-static-bounds -fchkp-use-static-const-bounds
# -fchkp-use-wrappers -fcommon -fdata-sections -fdelete-null-pointer-checks
# -fdwarf2-cfi-asm -fearly-inlining -feliminate-unused-debug-types
# -ffunction-cse -ffunction-sections -fgcse-lm -fgnu-runtime -fgnu-unique
# -fident -finline-atomics -fira-hoist-pressure -fira-share-save-slots
# -fira-share-spill-slots -fivopts -fkeep-static-consts
# -fleading-underscore -flifetime-dse -flto-odr-type-merging -fmath-errno
# -fmerge-debug-strings -fpeephole -fprefetch-loop-arrays
# -freg-struct-return -fsched-critical-path-heuristic
# -fsched-dep-count-heuristic -fsched-group-heuristic -fsched-interblock
# -fsched-last-insn-heuristic -fsched-rank-heuristic -fsched-spec
# -fsched-spec-insn-heuristic -fsched-stalled-insns-dep -fschedule-fusion
# -fsemantic-interposition -fshow-column -fsigned-zeros
# -fsplit-ivs-in-unroller -fstack-protector-strong -fstdarg-opt
# -fstrict-volatile-bitfields -fsync-libcalls -ftrapping-math
# -ftree-coalesce-vars -ftree-cselim -ftree-forwprop -ftree-loop-if-convert
# -ftree-loop-im -ftree-loop-ivcanon -ftree-loop-optimize
# -ftree-parallelize-loops= -ftree-phiprop -ftree-reassoc -ftree-scev-cprop
# -funit-at-a-time -funwind-tables -fverbose-asm -fzero-initialized-in-bss
# -m128bit-long-double -m64 -m80387 -malign-stringops
# -mavx256-split-unaligned-load -mavx256-split-unaligned-store
# -mfancy-math-387 -mfp-ret-in-387 -mfxsr -mglibc -mieee-fp
# -mlong-double-80 -mmmx -mno-sse4 -mpush-args -mred-zone -msse -msse2
# -mtls-direct-seg-refs -mvzeroupper

	.text
.Ltext0:
	.section	.text.imu_setup,"ax",@progbits
	.globl	imu_setup
	.type	imu_setup, @function
imu_setup:
.LFB2:
	.file 1 "src/main/drivers/SFE_LSM9DS0.c"
	.loc 1 36 0
	.cfi_startproc
	pushq	%rbp	#
	.cfi_def_cfa_offset 16
	.cfi_offset 6, -16
	movq	%rsp, %rbp	#,
	.cfi_def_cfa_register 6
	subq	$16, %rsp	#,
	movq	%rdi, -8(%rbp)	# imu, imu
	movl	%esi, %ecx	# gAddr, tmp93
	movl	%edx, %eax	# xmAddr, tmp94
	movb	%cl, -12(%rbp)	# tmp93, gAddr
	movb	%al, -16(%rbp)	# tmp94, xmAddr
	.loc 1 37 0
	movq	-8(%rbp), %rax	# imu, tmp95
	movw	$0, (%rax)	#, imu_2(D)->gx
	.loc 1 38 0
	movq	-8(%rbp), %rax	# imu, tmp96
	movw	$0, 2(%rax)	#, imu_2(D)->gy
	.loc 1 39 0
	movq	-8(%rbp), %rax	# imu, tmp97
	movw	$0, 4(%rax)	#, imu_2(D)->gz
	.loc 1 41 0
	movq	-8(%rbp), %rax	# imu, tmp98
	movw	$0, 6(%rax)	#, imu_2(D)->ax
	.loc 1 42 0
	movq	-8(%rbp), %rax	# imu, tmp99
	movw	$0, 8(%rax)	#, imu_2(D)->ay
	.loc 1 43 0
	movq	-8(%rbp), %rax	# imu, tmp100
	movw	$0, 10(%rax)	#, imu_2(D)->az
	.loc 1 45 0
	movq	-8(%rbp), %rax	# imu, tmp101
	movw	$0, 12(%rax)	#, imu_2(D)->mx
	.loc 1 46 0
	movq	-8(%rbp), %rax	# imu, tmp102
	movw	$0, 14(%rax)	#, imu_2(D)->my
	.loc 1 47 0
	movq	-8(%rbp), %rax	# imu, tmp103
	movw	$0, 16(%rax)	#, imu_2(D)->mz
	.loc 1 49 0
	movq	-8(%rbp), %rax	# imu, tmp104
	movw	$0, 18(%rax)	#, imu_2(D)->temperature
	.loc 1 51 0
	movq	-8(%rbp), %rax	# imu, tmp105
	movl	$0, 40(%rax)	#, imu_2(D)->gScale
	.loc 1 52 0
	movq	-8(%rbp), %rax	# imu, tmp106
	movl	$1, 44(%rax)	#, imu_2(D)->aScale
	.loc 1 53 0
	movq	-8(%rbp), %rax	# imu, tmp107
	movl	$0, 48(%rax)	#, imu_2(D)->mScale
	.loc 1 55 0
	movq	-8(%rbp), %rax	# imu, tmp108
	pxor	%xmm0, %xmm0	# tmp109
	movss	%xmm0, 52(%rax)	# tmp109, imu_2(D)->gRes
	.loc 1 56 0
	movq	-8(%rbp), %rax	# imu, tmp110
	pxor	%xmm0, %xmm0	# tmp111
	movss	%xmm0, 56(%rax)	# tmp111, imu_2(D)->aRes
	.loc 1 57 0
	movq	-8(%rbp), %rax	# imu, tmp112
	pxor	%xmm0, %xmm0	# tmp113
	movss	%xmm0, 60(%rax)	# tmp113, imu_2(D)->mRes
	.loc 1 61 0
	movl	$1, %edi	#,
	call	mraa_i2c_init	#
	movq	%rax, %rdx	#, D.5075
	movq	-8(%rbp), %rax	# imu, tmp114
	movq	%rdx, 24(%rax)	# D.5075, imu_2(D)->gyro
	.loc 1 62 0
	movzbl	-12(%rbp), %edx	# gAddr, D.5076
	movq	-8(%rbp), %rax	# imu, tmp115
	movq	24(%rax), %rax	# imu_2(D)->gyro, D.5075
	movl	%edx, %esi	# D.5076,
	movq	%rax, %rdi	# D.5075,
	call	mraa_i2c_address	#
	.loc 1 63 0
	movl	$1, %edi	#,
	call	mraa_i2c_init	#
	movq	%rax, %rdx	#, D.5075
	movq	-8(%rbp), %rax	# imu, tmp116
	movq	%rdx, 32(%rax)	# D.5075, imu_2(D)->xm
	.loc 1 64 0
	movzbl	-16(%rbp), %edx	# xmAddr, D.5076
	movq	-8(%rbp), %rax	# imu, tmp117
	movq	32(%rax), %rax	# imu_2(D)->xm, D.5075
	movl	%edx, %esi	# D.5076,
	movq	%rax, %rdi	# D.5075,
	call	mraa_i2c_address	#
	.loc 1 65 0
	nop
	leave
	.cfi_def_cfa 7, 8
	ret
	.cfi_endproc
.LFE2:
	.size	imu_setup, .-imu_setup
	.section	.text.begin,"ax",@progbits
	.globl	begin
	.type	begin, @function
begin:
.LFB3:
	.loc 1 69 0
	.cfi_startproc
	pushq	%rbp	#
	.cfi_def_cfa_offset 16
	.cfi_offset 6, -16
	movq	%rsp, %rbp	#,
	.cfi_def_cfa_register 6
	subq	$48, %rsp	#,
	movq	%rdi, -24(%rbp)	# imu, imu
	movl	%esi, -28(%rbp)	# gScl, gScl
	movl	%edx, -32(%rbp)	# aScl, aScl
	movl	%ecx, -36(%rbp)	# mScl, mScl
	movl	%r8d, -40(%rbp)	# gODR, gODR
	movl	%r9d, -44(%rbp)	# aODR, aODR
	.loc 1 72 0
	movq	-24(%rbp), %rax	# imu, tmp105
	movl	-28(%rbp), %edx	# gScl, tmp106
	movl	%edx, 40(%rax)	# tmp106, imu_2(D)->gScale
	.loc 1 73 0
	movq	-24(%rbp), %rax	# imu, tmp107
	movl	-32(%rbp), %edx	# aScl, tmp108
	movl	%edx, 44(%rax)	# tmp108, imu_2(D)->aScale
	.loc 1 74 0
	movq	-24(%rbp), %rax	# imu, tmp109
	movl	-36(%rbp), %edx	# mScl, tmp110
	movl	%edx, 48(%rax)	# tmp110, imu_2(D)->mScale
	.loc 1 78 0
	movq	-24(%rbp), %rax	# imu, tmp111
	movq	%rax, %rdi	# tmp111,
	movl	$0, %eax	#,
	call	calcgRes	#
	.loc 1 79 0
	movq	-24(%rbp), %rax	# imu, tmp112
	movq	%rax, %rdi	# tmp112,
	movl	$0, %eax	#,
	call	calcaRes	#
	.loc 1 80 0
	movq	-24(%rbp), %rax	# imu, tmp113
	movq	%rax, %rdi	# tmp113,
	movl	$0, %eax	#,
	call	calcmRes	#
	.loc 1 84 0
	movq	-24(%rbp), %rax	# imu, tmp114
	movq	24(%rax), %rax	# imu_2(D)->gyro, D.5077
	movl	$15, %esi	#,
	movq	%rax, %rdi	# D.5077,
	call	gReadByte	#
	movb	%al, -2(%rbp)	# tmp115, gTest
	.loc 1 85 0
	movq	-24(%rbp), %rax	# imu, tmp116
	movq	32(%rax), %rax	# imu_2(D)->xm, D.5077
	movl	$15, %esi	#,
	movq	%rax, %rdi	# D.5077,
	call	xmReadByte	#
	movb	%al, -1(%rbp)	# tmp117, xmTest
	.loc 1 88 0
	movq	-24(%rbp), %rax	# imu, tmp118
	movq	24(%rax), %rax	# imu_2(D)->gyro, D.5077
	movq	%rax, %rdi	# D.5077,
	call	initGyro	#
	.loc 1 89 0
	movq	-24(%rbp), %rax	# imu, tmp119
	movq	24(%rax), %rax	# imu_2(D)->gyro, D.5077
	movl	-40(%rbp), %edx	# gODR, tmp120
	movl	%edx, %esi	# tmp120,
	movq	%rax, %rdi	# D.5077,
	call	setGyroODR	#
	.loc 1 90 0
	movq	-24(%rbp), %rax	# imu, tmp121
	movl	40(%rax), %edx	# imu_2(D)->gScale, D.5078
	movq	-24(%rbp), %rax	# imu, tmp122
	movl	%edx, %esi	# D.5078,
	movq	%rax, %rdi	# tmp122,
	call	setGyroScale	#
	.loc 1 93 0
	movq	-24(%rbp), %rax	# imu, tmp123
	movq	32(%rax), %rax	# imu_2(D)->xm, D.5077
	movq	%rax, %rdi	# D.5077,
	call	initAccel	#
	.loc 1 94 0
	movq	-24(%rbp), %rax	# imu, tmp124
	movq	32(%rax), %rax	# imu_2(D)->xm, D.5077
	movl	-44(%rbp), %edx	# aODR, tmp125
	movl	%edx, %esi	# tmp125,
	movq	%rax, %rdi	# D.5077,
	call	setAccelODR	#
	.loc 1 95 0
	movq	-24(%rbp), %rax	# imu, tmp126
	movl	44(%rax), %edx	# imu_2(D)->aScale, D.5079
	movq	-24(%rbp), %rax	# imu, tmp127
	movl	%edx, %esi	# D.5079,
	movq	%rax, %rdi	# tmp127,
	call	setAccelScale	#
	.loc 1 98 0
	movq	-24(%rbp), %rax	# imu, tmp128
	movq	32(%rax), %rax	# imu_2(D)->xm, D.5077
	movq	%rax, %rdi	# D.5077,
	call	initMag	#
	.loc 1 99 0
	movq	-24(%rbp), %rax	# imu, tmp129
	movq	32(%rax), %rax	# imu_2(D)->xm, D.5077
	movl	16(%rbp), %esi	# mODR,
	movq	%rax, %rdi	# D.5077,
	call	setMagODR	#
	.loc 1 100 0
	movq	-24(%rbp), %rax	# imu, tmp130
	movl	48(%rax), %edx	# imu_2(D)->mScale, D.5080
	movq	-24(%rbp), %rax	# imu, tmp131
	movl	%edx, %esi	# D.5080,
	movq	%rax, %rdi	# tmp131,
	call	setMagScale	#
	.loc 1 103 0
	movzbl	-1(%rbp), %eax	# xmTest, D.5081
	sall	$8, %eax	#, D.5081
	movl	%eax, %edx	# D.5081, D.5082
	movzbl	-2(%rbp), %eax	# gTest, D.5082
	orl	%edx, %eax	# D.5082, D.5082
	.loc 1 104 0
	leave
	.cfi_def_cfa 7, 8
	ret
	.cfi_endproc
.LFE3:
	.size	begin, .-begin
	.section	.text.initGyro,"ax",@progbits
	.globl	initGyro
	.type	initGyro, @function
initGyro:
.LFB4:
	.loc 1 107 0
	.cfi_startproc
	pushq	%rbp	#
	.cfi_def_cfa_offset 16
	.cfi_offset 6, -16
	movq	%rsp, %rbp	#,
	.cfi_def_cfa_register 6
	subq	$16, %rsp	#,
	movq	%rdi, -8(%rbp)	# gyro, gyro
	.loc 1 116 0
	movq	-8(%rbp), %rax	# gyro, tmp87
	movl	$15, %edx	#,
	movl	$32, %esi	#,
	movq	%rax, %rdi	# tmp87,
	call	gWriteByte	#
	.loc 1 126 0
	movq	-8(%rbp), %rax	# gyro, tmp88
	movl	$0, %edx	#,
	movl	$33, %esi	#,
	movq	%rax, %rdi	# tmp88,
	call	gWriteByte	#
	.loc 1 139 0
	movq	-8(%rbp), %rax	# gyro, tmp89
	movl	$136, %edx	#,
	movl	$34, %esi	#,
	movq	%rax, %rdi	# tmp89,
	call	gWriteByte	#
	.loc 1 151 0
	movq	-8(%rbp), %rax	# gyro, tmp90
	movl	$0, %edx	#,
	movl	$35, %esi	#,
	movq	%rax, %rdi	# tmp90,
	call	gWriteByte	#
	.loc 1 160 0
	movq	-8(%rbp), %rax	# gyro, tmp91
	movl	$0, %edx	#,
	movl	$36, %esi	#,
	movq	%rax, %rdi	# tmp91,
	call	gWriteByte	#
	.loc 1 162 0
	nop
	leave
	.cfi_def_cfa 7, 8
	ret
	.cfi_endproc
.LFE4:
	.size	initGyro, .-initGyro
	.section	.text.initAccel,"ax",@progbits
	.globl	initAccel
	.type	initAccel, @function
initAccel:
.LFB5:
	.loc 1 165 0
	.cfi_startproc
	pushq	%rbp	#
	.cfi_def_cfa_offset 16
	.cfi_offset 6, -16
	movq	%rsp, %rbp	#,
	.cfi_def_cfa_register 6
	subq	$16, %rsp	#,
	movq	%rdi, -8(%rbp)	# xm, xm
	.loc 1 174 0
	movq	-8(%rbp), %rax	# xm, tmp87
	movl	$0, %edx	#,
	movl	$31, %esi	#,
	movq	%rax, %rdi	# tmp87,
	call	xmWriteByte	#
	.loc 1 187 0
	movq	-8(%rbp), %rax	# xm, tmp88
	movl	$87, %edx	#,
	movl	$32, %esi	#,
	movq	%rax, %rdi	# tmp88,
	call	xmWriteByte	#
	.loc 1 200 0
	movq	-8(%rbp), %rax	# xm, tmp89
	movl	$0, %edx	#,
	movl	$33, %esi	#,
	movq	%rax, %rdi	# tmp89,
	call	xmWriteByte	#
	.loc 1 206 0
	movq	-8(%rbp), %rax	# xm, tmp90
	movl	$4, %edx	#,
	movl	$34, %esi	#,
	movq	%rax, %rdi	# tmp90,
	call	xmWriteByte	#
	.loc 1 207 0
	nop
	leave
	.cfi_def_cfa 7, 8
	ret
	.cfi_endproc
.LFE5:
	.size	initAccel, .-initAccel
	.section	.text.initMag,"ax",@progbits
	.globl	initMag
	.type	initMag, @function
initMag:
.LFB6:
	.loc 1 210 0
	.cfi_startproc
	pushq	%rbp	#
	.cfi_def_cfa_offset 16
	.cfi_offset 6, -16
	movq	%rsp, %rbp	#,
	.cfi_def_cfa_register 6
	subq	$16, %rsp	#,
	movq	%rdi, -8(%rbp)	# xm, xm
	.loc 1 221 0
	movq	-8(%rbp), %rax	# xm, tmp87
	movl	$148, %edx	#,
	movl	$36, %esi	#,
	movq	%rax, %rdi	# tmp87,
	call	xmWriteByte	#
	.loc 1 227 0
	movq	-8(%rbp), %rax	# xm, tmp88
	movl	$0, %edx	#,
	movl	$37, %esi	#,
	movq	%rax, %rdi	# tmp88,
	call	xmWriteByte	#
	.loc 1 241 0
	movq	-8(%rbp), %rax	# xm, tmp89
	movl	$0, %edx	#,
	movl	$38, %esi	#,
	movq	%rax, %rdi	# tmp89,
	call	xmWriteByte	#
	.loc 1 246 0
	movq	-8(%rbp), %rax	# xm, tmp90
	movl	$4, %edx	#,
	movl	$35, %esi	#,
	movq	%rax, %rdi	# tmp90,
	call	xmWriteByte	#
	.loc 1 259 0
	movq	-8(%rbp), %rax	# xm, tmp91
	movl	$9, %edx	#,
	movl	$18, %esi	#,
	movq	%rax, %rdi	# tmp91,
	call	xmWriteByte	#
	.loc 1 260 0
	nop
	leave
	.cfi_def_cfa 7, 8
	ret
	.cfi_endproc
.LFE6:
	.size	initMag, .-initMag
	.section	.text.readGyro,"ax",@progbits
	.globl	readGyro
	.type	readGyro, @function
readGyro:
.LFB7:
	.loc 1 263 0
	.cfi_startproc
	pushq	%rbp	#
	.cfi_def_cfa_offset 16
	.cfi_offset 6, -16
	movq	%rsp, %rbp	#,
	.cfi_def_cfa_register 6
	subq	$32, %rsp	#,
	movq	%rdi, -24(%rbp)	# imu, imu
	.loc 1 263 0
	movq	%fs:40, %rax	#, tmp114
	movq	%rax, -8(%rbp)	# tmp114, D.5088
	xorl	%eax, %eax	# tmp114
	.loc 1 265 0
	movq	-24(%rbp), %rax	# imu, tmp109
	movq	24(%rax), %rax	# imu_2(D)->gyro, D.5084
	leaq	-16(%rbp), %rdx	#, tmp110
	movl	$6, %ecx	#,
	movl	$40, %esi	#,
	movq	%rax, %rdi	# D.5084,
	call	gReadBytes	#
	.loc 1 266 0
	movzbl	-15(%rbp), %eax	# temp, D.5085
	movzbl	%al, %eax	# D.5085, D.5086
	sall	$8, %eax	#, D.5086
	movl	%eax, %edx	# D.5086, D.5087
	movzbl	-16(%rbp), %eax	# temp, D.5085
	movzbl	%al, %eax	# D.5085, D.5087
	orl	%eax, %edx	# D.5087, D.5087
	movq	-24(%rbp), %rax	# imu, tmp111
	movw	%dx, (%rax)	# D.5087, imu_2(D)->gx
	.loc 1 267 0
	movzbl	-13(%rbp), %eax	# temp, D.5085
	movzbl	%al, %eax	# D.5085, D.5086
	sall	$8, %eax	#, D.5086
	movl	%eax, %edx	# D.5086, D.5087
	movzbl	-14(%rbp), %eax	# temp, D.5085
	movzbl	%al, %eax	# D.5085, D.5087
	orl	%eax, %edx	# D.5087, D.5087
	movq	-24(%rbp), %rax	# imu, tmp112
	movw	%dx, 2(%rax)	# D.5087, imu_2(D)->gy
	.loc 1 268 0
	movzbl	-11(%rbp), %eax	# temp, D.5085
	movzbl	%al, %eax	# D.5085, D.5086
	sall	$8, %eax	#, D.5086
	movl	%eax, %edx	# D.5086, D.5087
	movzbl	-12(%rbp), %eax	# temp, D.5085
	movzbl	%al, %eax	# D.5085, D.5087
	orl	%eax, %edx	# D.5087, D.5087
	movq	-24(%rbp), %rax	# imu, tmp113
	movw	%dx, 4(%rax)	# D.5087, imu_2(D)->gz
	.loc 1 269 0
	nop
	movq	-8(%rbp), %rax	# D.5088, tmp115
	xorq	%fs:40, %rax	#, tmp115
	je	.L8	#,
	call	__stack_chk_fail	#
.L8:
	leave
	.cfi_def_cfa 7, 8
	ret
	.cfi_endproc
.LFE7:
	.size	readGyro, .-readGyro
	.section	.text.readAccel,"ax",@progbits
	.globl	readAccel
	.type	readAccel, @function
readAccel:
.LFB8:
	.loc 1 272 0
	.cfi_startproc
	pushq	%rbp	#
	.cfi_def_cfa_offset 16
	.cfi_offset 6, -16
	movq	%rsp, %rbp	#,
	.cfi_def_cfa_register 6
	subq	$32, %rsp	#,
	movq	%rdi, -24(%rbp)	# imu, imu
	.loc 1 272 0
	movq	%fs:40, %rax	#, tmp114
	movq	%rax, -8(%rbp)	# tmp114, D.5095
	xorl	%eax, %eax	# tmp114
	.loc 1 274 0
	movq	-24(%rbp), %rax	# imu, tmp109
	movq	32(%rax), %rax	# imu_2(D)->xm, D.5091
	leaq	-16(%rbp), %rdx	#, tmp110
	movl	$6, %ecx	#,
	movl	$40, %esi	#,
	movq	%rax, %rdi	# D.5091,
	call	xmReadBytes	#
	.loc 1 275 0
	movzbl	-15(%rbp), %eax	# temp, D.5092
	movzbl	%al, %eax	# D.5092, D.5093
	sall	$8, %eax	#, D.5093
	movl	%eax, %edx	# D.5093, D.5094
	movzbl	-16(%rbp), %eax	# temp, D.5092
	movzbl	%al, %eax	# D.5092, D.5094
	orl	%eax, %edx	# D.5094, D.5094
	movq	-24(%rbp), %rax	# imu, tmp111
	movw	%dx, 6(%rax)	# D.5094, imu_2(D)->ax
	.loc 1 276 0
	movzbl	-13(%rbp), %eax	# temp, D.5092
	movzbl	%al, %eax	# D.5092, D.5093
	sall	$8, %eax	#, D.5093
	movl	%eax, %edx	# D.5093, D.5094
	movzbl	-14(%rbp), %eax	# temp, D.5092
	movzbl	%al, %eax	# D.5092, D.5094
	orl	%eax, %edx	# D.5094, D.5094
	movq	-24(%rbp), %rax	# imu, tmp112
	movw	%dx, 8(%rax)	# D.5094, imu_2(D)->ay
	.loc 1 277 0
	movzbl	-11(%rbp), %eax	# temp, D.5092
	movzbl	%al, %eax	# D.5092, D.5093
	sall	$8, %eax	#, D.5093
	movl	%eax, %edx	# D.5093, D.5094
	movzbl	-12(%rbp), %eax	# temp, D.5092
	movzbl	%al, %eax	# D.5092, D.5094
	orl	%eax, %edx	# D.5094, D.5094
	movq	-24(%rbp), %rax	# imu, tmp113
	movw	%dx, 10(%rax)	# D.5094, imu_2(D)->az
	.loc 1 278 0
	nop
	movq	-8(%rbp), %rax	# D.5095, tmp115
	xorq	%fs:40, %rax	#, tmp115
	je	.L10	#,
	call	__stack_chk_fail	#
.L10:
	leave
	.cfi_def_cfa 7, 8
	ret
	.cfi_endproc
.LFE8:
	.size	readAccel, .-readAccel
	.section	.text.readMag,"ax",@progbits
	.globl	readMag
	.type	readMag, @function
readMag:
.LFB9:
	.loc 1 281 0
	.cfi_startproc
	pushq	%rbp	#
	.cfi_def_cfa_offset 16
	.cfi_offset 6, -16
	movq	%rsp, %rbp	#,
	.cfi_def_cfa_register 6
	subq	$32, %rsp	#,
	movq	%rdi, -24(%rbp)	# imu, imu
	.loc 1 281 0
	movq	%fs:40, %rax	#, tmp114
	movq	%rax, -8(%rbp)	# tmp114, D.5100
	xorl	%eax, %eax	# tmp114
	.loc 1 283 0
	movq	-24(%rbp), %rax	# imu, tmp109
	movq	32(%rax), %rax	# imu_2(D)->xm, D.5096
	leaq	-16(%rbp), %rdx	#, tmp110
	movl	$6, %ecx	#,
	movl	$8, %esi	#,
	movq	%rax, %rdi	# D.5096,
	call	xmReadBytes	#
	.loc 1 284 0
	movzbl	-15(%rbp), %eax	# temp, D.5097
	movzbl	%al, %eax	# D.5097, D.5098
	sall	$8, %eax	#, D.5098
	movl	%eax, %edx	# D.5098, D.5099
	movzbl	-16(%rbp), %eax	# temp, D.5097
	movzbl	%al, %eax	# D.5097, D.5099
	orl	%eax, %edx	# D.5099, D.5099
	movq	-24(%rbp), %rax	# imu, tmp111
	movw	%dx, 12(%rax)	# D.5099, imu_2(D)->mx
	.loc 1 285 0
	movzbl	-13(%rbp), %eax	# temp, D.5097
	movzbl	%al, %eax	# D.5097, D.5098
	sall	$8, %eax	#, D.5098
	movl	%eax, %edx	# D.5098, D.5099
	movzbl	-14(%rbp), %eax	# temp, D.5097
	movzbl	%al, %eax	# D.5097, D.5099
	orl	%eax, %edx	# D.5099, D.5099
	movq	-24(%rbp), %rax	# imu, tmp112
	movw	%dx, 14(%rax)	# D.5099, imu_2(D)->my
	.loc 1 286 0
	movzbl	-11(%rbp), %eax	# temp, D.5097
	movzbl	%al, %eax	# D.5097, D.5098
	sall	$8, %eax	#, D.5098
	movl	%eax, %edx	# D.5098, D.5099
	movzbl	-12(%rbp), %eax	# temp, D.5097
	movzbl	%al, %eax	# D.5097, D.5099
	orl	%eax, %edx	# D.5099, D.5099
	movq	-24(%rbp), %rax	# imu, tmp113
	movw	%dx, 16(%rax)	# D.5099, imu_2(D)->mz
	.loc 1 287 0
	nop
	movq	-8(%rbp), %rax	# D.5100, tmp115
	xorq	%fs:40, %rax	#, tmp115
	je	.L12	#,
	call	__stack_chk_fail	#
.L12:
	leave
	.cfi_def_cfa 7, 8
	ret
	.cfi_endproc
.LFE9:
	.size	readMag, .-readMag
	.section	.text.readTemp,"ax",@progbits
	.globl	readTemp
	.type	readTemp, @function
readTemp:
.LFB10:
	.loc 1 290 0
	.cfi_startproc
	pushq	%rbp	#
	.cfi_def_cfa_offset 16
	.cfi_offset 6, -16
	movq	%rsp, %rbp	#,
	.cfi_def_cfa_register 6
	subq	$32, %rsp	#,
	movq	%rdi, -24(%rbp)	# imu, imu
	.loc 1 290 0
	movq	%fs:40, %rax	#, tmp98
	movq	%rax, -8(%rbp)	# tmp98, D.5105
	xorl	%eax, %eax	# tmp98
	.loc 1 292 0
	movq	-24(%rbp), %rax	# imu, tmp95
	movq	32(%rax), %rax	# imu_2(D)->xm, D.5101
	leaq	-16(%rbp), %rdx	#, tmp96
	movl	$2, %ecx	#,
	movl	$5, %esi	#,
	movq	%rax, %rdi	# D.5101,
	call	xmReadBytes	#
	.loc 1 293 0
	movzbl	-16(%rbp), %eax	# temp, D.5102
	movzbl	%al, %eax	# D.5102, D.5103
	movzbl	-15(%rbp), %edx	# temp, D.5102
	movzbl	%dl, %edx	# D.5102, D.5103
	sall	$8, %edx	#, D.5103
	addl	%edx, %eax	# D.5103, D.5103
	movl	%eax, %edx	# D.5103, D.5104
	movq	-24(%rbp), %rax	# imu, tmp97
	movw	%dx, 18(%rax)	# D.5104, imu_2(D)->temperature
	.loc 1 294 0
	nop
	movq	-8(%rbp), %rax	# D.5105, tmp99
	xorq	%fs:40, %rax	#, tmp99
	je	.L14	#,
	call	__stack_chk_fail	#
.L14:
	leave
	.cfi_def_cfa 7, 8
	ret
	.cfi_endproc
.LFE10:
	.size	readTemp, .-readTemp
	.section	.text.calcGyro,"ax",@progbits
	.globl	calcGyro
	.type	calcGyro, @function
calcGyro:
.LFB11:
	.loc 1 297 0
	.cfi_startproc
	pushq	%rbp	#
	.cfi_def_cfa_offset 16
	.cfi_offset 6, -16
	movq	%rsp, %rbp	#,
	.cfi_def_cfa_register 6
	movq	%rdi, -8(%rbp)	# imu, imu
	movl	%esi, %eax	# gyro, tmp91
	movw	%ax, -12(%rbp)	# tmp91, gyro
	.loc 1 299 0
	movq	-8(%rbp), %rax	# imu, tmp92
	movss	52(%rax), %xmm1	# imu_2(D)->gRes, D.5106
	movswl	-12(%rbp), %eax	# gyro, tmp93
	pxor	%xmm0, %xmm0	# D.5106
	cvtsi2ss	%eax, %xmm0	# tmp93, D.5106
	mulss	%xmm1, %xmm0	# D.5106, D.5106
	.loc 1 300 0
	popq	%rbp	#
	.cfi_def_cfa 7, 8
	ret
	.cfi_endproc
.LFE11:
	.size	calcGyro, .-calcGyro
	.section	.text.calcAccel,"ax",@progbits
	.globl	calcAccel
	.type	calcAccel, @function
calcAccel:
.LFB12:
	.loc 1 303 0
	.cfi_startproc
	pushq	%rbp	#
	.cfi_def_cfa_offset 16
	.cfi_offset 6, -16
	movq	%rsp, %rbp	#,
	.cfi_def_cfa_register 6
	movq	%rdi, -8(%rbp)	# imu, imu
	movl	%esi, %eax	# accel, tmp91
	movw	%ax, -12(%rbp)	# tmp91, accel
	.loc 1 305 0
	movq	-8(%rbp), %rax	# imu, tmp92
	movss	56(%rax), %xmm1	# imu_2(D)->aRes, D.5107
	movswl	-12(%rbp), %eax	# accel, tmp93
	pxor	%xmm0, %xmm0	# D.5107
	cvtsi2ss	%eax, %xmm0	# tmp93, D.5107
	mulss	%xmm1, %xmm0	# D.5107, D.5107
	.loc 1 306 0
	popq	%rbp	#
	.cfi_def_cfa 7, 8
	ret
	.cfi_endproc
.LFE12:
	.size	calcAccel, .-calcAccel
	.section	.text.calcMag,"ax",@progbits
	.globl	calcMag
	.type	calcMag, @function
calcMag:
.LFB13:
	.loc 1 309 0
	.cfi_startproc
	pushq	%rbp	#
	.cfi_def_cfa_offset 16
	.cfi_offset 6, -16
	movq	%rsp, %rbp	#,
	.cfi_def_cfa_register 6
	movq	%rdi, -8(%rbp)	# imu, imu
	movl	%esi, %eax	# mag, tmp91
	movw	%ax, -12(%rbp)	# tmp91, mag
	.loc 1 311 0
	movq	-8(%rbp), %rax	# imu, tmp92
	movss	60(%rax), %xmm1	# imu_2(D)->mRes, D.5108
	movswl	-12(%rbp), %eax	# mag, tmp93
	pxor	%xmm0, %xmm0	# D.5108
	cvtsi2ss	%eax, %xmm0	# tmp93, D.5108
	mulss	%xmm1, %xmm0	# D.5108, D.5108
	.loc 1 312 0
	popq	%rbp	#
	.cfi_def_cfa 7, 8
	ret
	.cfi_endproc
.LFE13:
	.size	calcMag, .-calcMag
	.section	.text.setGyroScale,"ax",@progbits
	.globl	setGyroScale
	.type	setGyroScale, @function
setGyroScale:
.LFB14:
	.loc 1 315 0
	.cfi_startproc
	pushq	%rbp	#
	.cfi_def_cfa_offset 16
	.cfi_offset 6, -16
	movq	%rsp, %rbp	#,
	.cfi_def_cfa_register 6
	subq	$32, %rsp	#,
	movq	%rdi, -24(%rbp)	# imu, imu
	movl	%esi, -28(%rbp)	# gScl, gScl
	.loc 1 317 0
	movq	-24(%rbp), %rax	# imu, tmp92
	movq	24(%rax), %rax	# imu_2(D)->gyro, D.5109
	movl	$35, %esi	#,
	movq	%rax, %rdi	# D.5109,
	call	gReadByte	#
	movb	%al, -1(%rbp)	# tmp93, temp
	.loc 1 319 0
	andb	$-49, -1(%rbp)	#, temp
	.loc 1 321 0
	movl	-28(%rbp), %eax	# gScl, tmp94
	sall	$4, %eax	#, D.5110
	orb	%al, -1(%rbp)	# D.5110, temp
	.loc 1 323 0
	movzbl	-1(%rbp), %edx	# temp, D.5111
	movq	-24(%rbp), %rax	# imu, tmp95
	movq	24(%rax), %rax	# imu_2(D)->gyro, D.5109
	movl	$35, %esi	#,
	movq	%rax, %rdi	# D.5109,
	call	gWriteByte	#
	.loc 1 327 0
	movq	-24(%rbp), %rax	# imu, tmp96
	movl	-28(%rbp), %edx	# gScl, tmp97
	movl	%edx, 40(%rax)	# tmp97, imu_2(D)->gScale
	.loc 1 329 0
	movq	-24(%rbp), %rax	# imu, tmp98
	movq	%rax, %rdi	# tmp98,
	movl	$0, %eax	#,
	call	calcgRes	#
	.loc 1 330 0
	nop
	leave
	.cfi_def_cfa 7, 8
	ret
	.cfi_endproc
.LFE14:
	.size	setGyroScale, .-setGyroScale
	.section	.text.setAccelScale,"ax",@progbits
	.globl	setAccelScale
	.type	setAccelScale, @function
setAccelScale:
.LFB15:
	.loc 1 333 0
	.cfi_startproc
	pushq	%rbp	#
	.cfi_def_cfa_offset 16
	.cfi_offset 6, -16
	movq	%rsp, %rbp	#,
	.cfi_def_cfa_register 6
	subq	$32, %rsp	#,
	movq	%rdi, -24(%rbp)	# imu, imu
	movl	%esi, -28(%rbp)	# aScl, aScl
	.loc 1 335 0
	movq	-24(%rbp), %rax	# imu, tmp92
	movq	32(%rax), %rax	# imu_2(D)->xm, D.5112
	movl	$33, %esi	#,
	movq	%rax, %rdi	# D.5112,
	call	xmReadByte	#
	movb	%al, -1(%rbp)	# tmp93, temp
	.loc 1 337 0
	andb	$-25, -1(%rbp)	#, temp
	.loc 1 339 0
	movl	-28(%rbp), %eax	# aScl, tmp94
	sall	$3, %eax	#, D.5113
	orb	%al, -1(%rbp)	# D.5113, temp
	.loc 1 341 0
	movzbl	-1(%rbp), %edx	# temp, D.5114
	movq	-24(%rbp), %rax	# imu, tmp95
	movq	32(%rax), %rax	# imu_2(D)->xm, D.5112
	movl	$33, %esi	#,
	movq	%rax, %rdi	# D.5112,
	call	xmWriteByte	#
	.loc 1 345 0
	movq	-24(%rbp), %rax	# imu, tmp96
	movl	-28(%rbp), %edx	# aScl, tmp97
	movl	%edx, 44(%rax)	# tmp97, imu_2(D)->aScale
	.loc 1 347 0
	movl	$0, %eax	#,
	call	calcaRes	#
	.loc 1 348 0
	nop
	leave
	.cfi_def_cfa 7, 8
	ret
	.cfi_endproc
.LFE15:
	.size	setAccelScale, .-setAccelScale
	.section	.text.setMagScale,"ax",@progbits
	.globl	setMagScale
	.type	setMagScale, @function
setMagScale:
.LFB16:
	.loc 1 351 0
	.cfi_startproc
	pushq	%rbp	#
	.cfi_def_cfa_offset 16
	.cfi_offset 6, -16
	movq	%rsp, %rbp	#,
	.cfi_def_cfa_register 6
	subq	$32, %rsp	#,
	movq	%rdi, -24(%rbp)	# imu, imu
	movl	%esi, -28(%rbp)	# mScl, mScl
	.loc 1 353 0
	movq	-24(%rbp), %rax	# imu, tmp92
	movq	32(%rax), %rax	# imu_2(D)->xm, D.5115
	movl	$37, %esi	#,
	movq	%rax, %rdi	# D.5115,
	call	xmReadByte	#
	movb	%al, -1(%rbp)	# tmp93, temp
	.loc 1 355 0
	andb	$-97, -1(%rbp)	#, temp
	.loc 1 357 0
	movl	-28(%rbp), %eax	# mScl, tmp94
	sall	$5, %eax	#, D.5116
	orb	%al, -1(%rbp)	# D.5116, temp
	.loc 1 359 0
	movzbl	-1(%rbp), %edx	# temp, D.5117
	movq	-24(%rbp), %rax	# imu, tmp95
	movq	32(%rax), %rax	# imu_2(D)->xm, D.5115
	movl	$37, %esi	#,
	movq	%rax, %rdi	# D.5115,
	call	xmWriteByte	#
	.loc 1 363 0
	movq	-24(%rbp), %rax	# imu, tmp96
	movl	-28(%rbp), %edx	# mScl, tmp97
	movl	%edx, 48(%rax)	# tmp97, imu_2(D)->mScale
	.loc 1 365 0
	movl	$0, %eax	#,
	call	calcmRes	#
	.loc 1 366 0
	nop
	leave
	.cfi_def_cfa 7, 8
	ret
	.cfi_endproc
.LFE16:
	.size	setMagScale, .-setMagScale
	.section	.text.setGyroODR,"ax",@progbits
	.globl	setGyroODR
	.type	setGyroODR, @function
setGyroODR:
.LFB17:
	.loc 1 369 0
	.cfi_startproc
	pushq	%rbp	#
	.cfi_def_cfa_offset 16
	.cfi_offset 6, -16
	movq	%rsp, %rbp	#,
	.cfi_def_cfa_register 6
	subq	$32, %rsp	#,
	movq	%rdi, -24(%rbp)	# gyro, gyro
	movl	%esi, -28(%rbp)	# gRate, gRate
	.loc 1 371 0
	movq	-24(%rbp), %rax	# gyro, tmp90
	movl	$32, %esi	#,
	movq	%rax, %rdi	# tmp90,
	call	gReadByte	#
	movb	%al, -1(%rbp)	# tmp91, temp
	.loc 1 373 0
	andb	$15, -1(%rbp)	#, temp
	.loc 1 375 0
	movl	-28(%rbp), %eax	# gRate, tmp92
	sall	$4, %eax	#, D.5118
	orb	%al, -1(%rbp)	# D.5118, temp
	.loc 1 377 0
	movzbl	-1(%rbp), %edx	# temp, D.5119
	movq	-24(%rbp), %rax	# gyro, tmp93
	movl	$32, %esi	#,
	movq	%rax, %rdi	# tmp93,
	call	gWriteByte	#
	.loc 1 378 0
	nop
	leave
	.cfi_def_cfa 7, 8
	ret
	.cfi_endproc
.LFE17:
	.size	setGyroODR, .-setGyroODR
	.section	.text.setAccelODR,"ax",@progbits
	.globl	setAccelODR
	.type	setAccelODR, @function
setAccelODR:
.LFB18:
	.loc 1 381 0
	.cfi_startproc
	pushq	%rbp	#
	.cfi_def_cfa_offset 16
	.cfi_offset 6, -16
	movq	%rsp, %rbp	#,
	.cfi_def_cfa_register 6
	subq	$32, %rsp	#,
	movq	%rdi, -24(%rbp)	# xm, xm
	movl	%esi, -28(%rbp)	# aRate, aRate
	.loc 1 383 0
	movq	-24(%rbp), %rax	# xm, tmp90
	movl	$32, %esi	#,
	movq	%rax, %rdi	# tmp90,
	call	xmReadByte	#
	movb	%al, -1(%rbp)	# tmp91, temp
	.loc 1 385 0
	andb	$15, -1(%rbp)	#, temp
	.loc 1 387 0
	movl	-28(%rbp), %eax	# aRate, tmp92
	sall	$4, %eax	#, D.5120
	orb	%al, -1(%rbp)	# D.5120, temp
	.loc 1 389 0
	movzbl	-1(%rbp), %edx	# temp, D.5121
	movq	-24(%rbp), %rax	# xm, tmp93
	movl	$32, %esi	#,
	movq	%rax, %rdi	# tmp93,
	call	xmWriteByte	#
	.loc 1 390 0
	nop
	leave
	.cfi_def_cfa 7, 8
	ret
	.cfi_endproc
.LFE18:
	.size	setAccelODR, .-setAccelODR
	.section	.text.setAccelABW,"ax",@progbits
	.globl	setAccelABW
	.type	setAccelABW, @function
setAccelABW:
.LFB19:
	.loc 1 393 0
	.cfi_startproc
	pushq	%rbp	#
	.cfi_def_cfa_offset 16
	.cfi_offset 6, -16
	movq	%rsp, %rbp	#,
	.cfi_def_cfa_register 6
	subq	$32, %rsp	#,
	movq	%rdi, -24(%rbp)	# xm, xm
	movl	%esi, -28(%rbp)	# abwRate, abwRate
	.loc 1 395 0
	movq	-24(%rbp), %rax	# xm, tmp90
	movl	$33, %esi	#,
	movq	%rax, %rdi	# tmp90,
	call	xmReadByte	#
	movb	%al, -1(%rbp)	# tmp91, temp
	.loc 1 397 0
	andb	$63, -1(%rbp)	#, temp
	.loc 1 399 0
	movl	-28(%rbp), %eax	# abwRate, tmp92
	sall	$6, %eax	#, D.5122
	orb	%al, -1(%rbp)	# D.5122, temp
	.loc 1 401 0
	movzbl	-1(%rbp), %edx	# temp, D.5123
	movq	-24(%rbp), %rax	# xm, tmp93
	movl	$33, %esi	#,
	movq	%rax, %rdi	# tmp93,
	call	xmWriteByte	#
	.loc 1 402 0
	nop
	leave
	.cfi_def_cfa 7, 8
	ret
	.cfi_endproc
.LFE19:
	.size	setAccelABW, .-setAccelABW
	.section	.text.setMagODR,"ax",@progbits
	.globl	setMagODR
	.type	setMagODR, @function
setMagODR:
.LFB20:
	.loc 1 405 0
	.cfi_startproc
	pushq	%rbp	#
	.cfi_def_cfa_offset 16
	.cfi_offset 6, -16
	movq	%rsp, %rbp	#,
	.cfi_def_cfa_register 6
	subq	$32, %rsp	#,
	movq	%rdi, -24(%rbp)	# xm, xm
	movl	%esi, -28(%rbp)	# mRate, mRate
	.loc 1 407 0
	movq	-24(%rbp), %rax	# xm, tmp90
	movl	$36, %esi	#,
	movq	%rax, %rdi	# tmp90,
	call	xmReadByte	#
	movb	%al, -1(%rbp)	# tmp91, temp
	.loc 1 409 0
	andb	$-29, -1(%rbp)	#, temp
	.loc 1 411 0
	movl	-28(%rbp), %eax	# mRate, tmp92
	sall	$2, %eax	#, D.5124
	orb	%al, -1(%rbp)	# D.5124, temp
	.loc 1 413 0
	movzbl	-1(%rbp), %edx	# temp, D.5125
	movq	-24(%rbp), %rax	# xm, tmp93
	movl	$36, %esi	#,
	movq	%rax, %rdi	# tmp93,
	call	xmWriteByte	#
	.loc 1 414 0
	nop
	leave
	.cfi_def_cfa 7, 8
	ret
	.cfi_endproc
.LFE20:
	.size	setMagODR, .-setMagODR
	.section	.text.calcgRes,"ax",@progbits
	.globl	calcgRes
	.type	calcgRes, @function
calcgRes:
.LFB21:
	.loc 1 417 0
	.cfi_startproc
	pushq	%rbp	#
	.cfi_def_cfa_offset 16
	.cfi_offset 6, -16
	movq	%rsp, %rbp	#,
	.cfi_def_cfa_register 6
	movq	%rdi, -8(%rbp)	# imu, imu
	.loc 1 421 0
	movq	-8(%rbp), %rax	# imu, tmp88
	movl	40(%rax), %eax	# imu_3(D)->gScale, D.5126
	cmpl	$1, %eax	#, D.5126
	je	.L30	#,
	cmpl	$1, %eax	#, D.5126
	jb	.L31	#,
	cmpl	$2, %eax	#, D.5126
	je	.L32	#,
	.loc 1 433 0
	jmp	.L33	#
.L31:
	.loc 1 424 0
	movq	-8(%rbp), %rax	# imu, tmp89
	movss	.LC1(%rip), %xmm0	#, tmp90
	movss	%xmm0, 52(%rax)	# tmp90, imu_3(D)->gRes
	.loc 1 425 0
	jmp	.L29	#
.L30:
	.loc 1 427 0
	movq	-8(%rbp), %rax	# imu, tmp91
	movss	.LC2(%rip), %xmm0	#, tmp92
	movss	%xmm0, 52(%rax)	# tmp92, imu_3(D)->gRes
	.loc 1 428 0
	jmp	.L29	#
.L32:
	.loc 1 430 0
	movq	-8(%rbp), %rax	# imu, tmp93
	movss	.LC3(%rip), %xmm0	#, tmp94
	movss	%xmm0, 52(%rax)	# tmp94, imu_3(D)->gRes
	.loc 1 431 0
	nop
.L29:
.L33:
	.loc 1 433 0
	nop
	popq	%rbp	#
	.cfi_def_cfa 7, 8
	ret
	.cfi_endproc
.LFE21:
	.size	calcgRes, .-calcgRes
	.section	.text.calcaRes,"ax",@progbits
	.globl	calcaRes
	.type	calcaRes, @function
calcaRes:
.LFB22:
	.loc 1 436 0
	.cfi_startproc
	pushq	%rbp	#
	.cfi_def_cfa_offset 16
	.cfi_offset 6, -16
	movq	%rsp, %rbp	#,
	.cfi_def_cfa_register 6
	movq	%rdi, -8(%rbp)	# imu, imu
	.loc 1 440 0
	movq	-8(%rbp), %rax	# imu, tmp95
	movl	44(%rax), %eax	# imu_3(D)->aScale, D.5128
	cmpl	$4, %eax	#, D.5128
	je	.L35	#,
	.loc 1 441 0 discriminator 1
	movq	-8(%rbp), %rax	# imu, tmp96
	movl	44(%rax), %eax	# imu_3(D)->aScale, D.5128
	movl	%eax, %eax	# D.5128, tmp97
	testq	%rax, %rax	# tmp97
	js	.L36	#,
	pxor	%xmm0, %xmm0	# D.5127
	cvtsi2ssq	%rax, %xmm0	# tmp97, D.5127
	jmp	.L37	#
.L36:
	movq	%rax, %rdx	# tmp97, tmp99
	shrq	%rdx	# tmp99
	andl	$1, %eax	#, tmp100
	orq	%rax, %rdx	# tmp100, tmp99
	pxor	%xmm0, %xmm0	# tmp98
	cvtsi2ssq	%rdx, %xmm0	# tmp99, tmp98
	addss	%xmm0, %xmm0	# tmp98, D.5127
.L37:
	cvtss2sd	%xmm0, %xmm0	# D.5127, D.5129
	movsd	.LC4(%rip), %xmm1	#, tmp101
	addsd	%xmm1, %xmm0	# tmp101, D.5129
	addsd	%xmm0, %xmm0	# D.5129, D.5129
	movsd	.LC5(%rip), %xmm1	#, tmp102
	divsd	%xmm1, %xmm0	# tmp102, D.5129
	.loc 1 440 0 discriminator 1
	cvtsd2ss	%xmm0, %xmm0	# D.5129, D.5127
	jmp	.L38	#
.L35:
	.loc 1 440 0 is_stmt 0 discriminator 2
	movss	.LC6(%rip), %xmm0	#, D.5127
.L38:
	.loc 1 440 0 discriminator 4
	movq	-8(%rbp), %rax	# imu, tmp103
	movss	%xmm0, 56(%rax)	# D.5127, imu_3(D)->aRes
	.loc 1 442 0 is_stmt 1 discriminator 4
	nop
	popq	%rbp	#
	.cfi_def_cfa 7, 8
	ret
	.cfi_endproc
.LFE22:
	.size	calcaRes, .-calcaRes
	.section	.text.calcmRes,"ax",@progbits
	.globl	calcmRes
	.type	calcmRes, @function
calcmRes:
.LFB23:
	.loc 1 445 0
	.cfi_startproc
	pushq	%rbp	#
	.cfi_def_cfa_offset 16
	.cfi_offset 6, -16
	movq	%rsp, %rbp	#,
	.cfi_def_cfa_register 6
	movq	%rdi, -8(%rbp)	# imu, imu
	.loc 1 449 0
	movq	-8(%rbp), %rax	# imu, tmp94
	movl	48(%rax), %eax	# imu_3(D)->mScale, D.5131
	testl	%eax, %eax	# D.5131
	je	.L40	#,
	.loc 1 450 0 discriminator 1
	movq	-8(%rbp), %rax	# imu, tmp95
	movl	48(%rax), %eax	# imu_3(D)->mScale, D.5131
	sall	$2, %eax	#, D.5132
	movl	%eax, %eax	# D.5132, tmp96
	testq	%rax, %rax	# tmp96
	js	.L41	#,
	pxor	%xmm0, %xmm0	# D.5130
	cvtsi2ssq	%rax, %xmm0	# tmp96, D.5130
	jmp	.L42	#
.L41:
	movq	%rax, %rdx	# tmp96, tmp98
	shrq	%rdx	# tmp98
	andl	$1, %eax	#, tmp99
	orq	%rax, %rdx	# tmp99, tmp98
	pxor	%xmm0, %xmm0	# tmp97
	cvtsi2ssq	%rdx, %xmm0	# tmp98, tmp97
	addss	%xmm0, %xmm0	# tmp97, D.5130
.L42:
	cvtss2sd	%xmm0, %xmm0	# D.5130, D.5133
	movsd	.LC5(%rip), %xmm1	#, tmp100
	divsd	%xmm1, %xmm0	# tmp100, D.5133
	.loc 1 449 0 discriminator 1
	cvtsd2ss	%xmm0, %xmm0	# D.5133, D.5130
	jmp	.L43	#
.L40:
	.loc 1 449 0 is_stmt 0 discriminator 2
	movss	.LC7(%rip), %xmm0	#, D.5130
.L43:
	.loc 1 449 0 discriminator 4
	movq	-8(%rbp), %rax	# imu, tmp101
	movss	%xmm0, 60(%rax)	# D.5130, imu_3(D)->mRes
	.loc 1 451 0 is_stmt 1 discriminator 4
	nop
	popq	%rbp	#
	.cfi_def_cfa 7, 8
	ret
	.cfi_endproc
.LFE23:
	.size	calcmRes, .-calcmRes
	.section	.text.newXData,"ax",@progbits
	.globl	newXData
	.type	newXData, @function
newXData:
.LFB24:
	.loc 1 454 0
	.cfi_startproc
	pushq	%rbp	#
	.cfi_def_cfa_offset 16
	.cfi_offset 6, -16
	movq	%rsp, %rbp	#,
	.cfi_def_cfa_register 6
	subq	$32, %rsp	#,
	movq	%rdi, -24(%rbp)	# xm, xm
	.loc 1 455 0
	movb	$8, -2(%rbp)	#, dReadyMask
	.loc 1 456 0
	movq	-24(%rbp), %rax	# xm, tmp90
	movl	$39, %esi	#,
	movq	%rax, %rdi	# tmp90,
	call	xmReadByte	#
	movb	%al, -1(%rbp)	# tmp91, statusRegVal
	.loc 1 457 0
	movzbl	-2(%rbp), %eax	# dReadyMask, tmp92
	andb	-1(%rbp), %al	# statusRegVal, D.5135
	testb	%al, %al	# D.5135
	je	.L45	#,
	.loc 1 459 0
	movl	$1, %eax	#, D.5134
	jmp	.L46	#
.L45:
	.loc 1 461 0
	movl	$0, %eax	#, D.5134
.L46:
	.loc 1 462 0
	leave
	.cfi_def_cfa 7, 8
	ret
	.cfi_endproc
.LFE24:
	.size	newXData, .-newXData
	.section	.text.newMData,"ax",@progbits
	.globl	newMData
	.type	newMData, @function
newMData:
.LFB25:
	.loc 1 465 0
	.cfi_startproc
	pushq	%rbp	#
	.cfi_def_cfa_offset 16
	.cfi_offset 6, -16
	movq	%rsp, %rbp	#,
	.cfi_def_cfa_register 6
	subq	$32, %rsp	#,
	movq	%rdi, -24(%rbp)	# xm, xm
	.loc 1 466 0
	movb	$8, -2(%rbp)	#, dReadyMask
	.loc 1 467 0
	movq	-24(%rbp), %rax	# xm, tmp90
	movl	$7, %esi	#,
	movq	%rax, %rdi	# tmp90,
	call	xmReadByte	#
	movb	%al, -1(%rbp)	# tmp91, statusRegVal
	.loc 1 468 0
	movzbl	-2(%rbp), %eax	# dReadyMask, tmp92
	andb	-1(%rbp), %al	# statusRegVal, D.5137
	testb	%al, %al	# D.5137
	je	.L48	#,
	.loc 1 470 0
	movl	$1, %eax	#, D.5136
	jmp	.L49	#
.L48:
	.loc 1 472 0
	movl	$0, %eax	#, D.5136
.L49:
	.loc 1 473 0
	leave
	.cfi_def_cfa 7, 8
	ret
	.cfi_endproc
.LFE25:
	.size	newMData, .-newMData
	.section	.text.newGData,"ax",@progbits
	.globl	newGData
	.type	newGData, @function
newGData:
.LFB26:
	.loc 1 476 0
	.cfi_startproc
	pushq	%rbp	#
	.cfi_def_cfa_offset 16
	.cfi_offset 6, -16
	movq	%rsp, %rbp	#,
	.cfi_def_cfa_register 6
	subq	$32, %rsp	#,
	movq	%rdi, -24(%rbp)	# gyro, gyro
	.loc 1 477 0
	movb	$8, -2(%rbp)	#, dReadyMask
	.loc 1 478 0
	movq	-24(%rbp), %rax	# gyro, tmp90
	movl	$39, %esi	#,
	movq	%rax, %rdi	# tmp90,
	call	gReadByte	#
	movb	%al, -1(%rbp)	# tmp91, statusRegVal
	.loc 1 479 0
	movzbl	-2(%rbp), %eax	# dReadyMask, tmp92
	andb	-1(%rbp), %al	# statusRegVal, D.5139
	testb	%al, %al	# D.5139
	je	.L51	#,
	.loc 1 481 0
	movl	$1, %eax	#, D.5138
	jmp	.L52	#
.L51:
	.loc 1 483 0
	movl	$0, %eax	#, D.5138
.L52:
	.loc 1 484 0
	leave
	.cfi_def_cfa 7, 8
	ret
	.cfi_endproc
.LFE26:
	.size	newGData, .-newGData
	.section	.text.xDataOverflow,"ax",@progbits
	.globl	xDataOverflow
	.type	xDataOverflow, @function
xDataOverflow:
.LFB27:
	.loc 1 487 0
	.cfi_startproc
	pushq	%rbp	#
	.cfi_def_cfa_offset 16
	.cfi_offset 6, -16
	movq	%rsp, %rbp	#,
	.cfi_def_cfa_register 6
	subq	$32, %rsp	#,
	movq	%rdi, -24(%rbp)	# xm, xm
	.loc 1 488 0
	movb	$-128, -2(%rbp)	#, dOverflowMask
	.loc 1 489 0
	movq	-24(%rbp), %rax	# xm, tmp90
	movl	$39, %esi	#,
	movq	%rax, %rdi	# tmp90,
	call	xmReadByte	#
	movb	%al, -1(%rbp)	# tmp91, statusRegVal
	.loc 1 490 0
	movzbl	-2(%rbp), %eax	# dOverflowMask, tmp92
	andb	-1(%rbp), %al	# statusRegVal, D.5141
	testb	%al, %al	# D.5141
	je	.L54	#,
	.loc 1 492 0
	movl	$1, %eax	#, D.5140
	jmp	.L55	#
.L54:
	.loc 1 494 0
	movl	$0, %eax	#, D.5140
.L55:
	.loc 1 495 0
	leave
	.cfi_def_cfa 7, 8
	ret
	.cfi_endproc
.LFE27:
	.size	xDataOverflow, .-xDataOverflow
	.section	.text.gDataOverflow,"ax",@progbits
	.globl	gDataOverflow
	.type	gDataOverflow, @function
gDataOverflow:
.LFB28:
	.loc 1 498 0
	.cfi_startproc
	pushq	%rbp	#
	.cfi_def_cfa_offset 16
	.cfi_offset 6, -16
	movq	%rsp, %rbp	#,
	.cfi_def_cfa_register 6
	subq	$32, %rsp	#,
	movq	%rdi, -24(%rbp)	# xm, xm
	.loc 1 499 0
	movb	$-128, -2(%rbp)	#, dOverflowMask
	.loc 1 500 0
	movq	-24(%rbp), %rax	# xm, tmp90
	movl	$39, %esi	#,
	movq	%rax, %rdi	# tmp90,
	call	xmReadByte	#
	movb	%al, -1(%rbp)	# tmp91, statusRegVal
	.loc 1 501 0
	movzbl	-2(%rbp), %eax	# dOverflowMask, tmp92
	andb	-1(%rbp), %al	# statusRegVal, D.5143
	testb	%al, %al	# D.5143
	je	.L57	#,
	.loc 1 503 0
	movl	$1, %eax	#, D.5142
	jmp	.L58	#
.L57:
	.loc 1 505 0
	movl	$0, %eax	#, D.5142
.L58:
	.loc 1 506 0
	leave
	.cfi_def_cfa 7, 8
	ret
	.cfi_endproc
.LFE28:
	.size	gDataOverflow, .-gDataOverflow
	.section	.text.mDataOverflow,"ax",@progbits
	.globl	mDataOverflow
	.type	mDataOverflow, @function
mDataOverflow:
.LFB29:
	.loc 1 509 0
	.cfi_startproc
	pushq	%rbp	#
	.cfi_def_cfa_offset 16
	.cfi_offset 6, -16
	movq	%rsp, %rbp	#,
	.cfi_def_cfa_register 6
	subq	$32, %rsp	#,
	movq	%rdi, -24(%rbp)	# xm, xm
	.loc 1 510 0
	movb	$-128, -2(%rbp)	#, dOverflowMask
	.loc 1 511 0
	movq	-24(%rbp), %rax	# xm, tmp90
	movl	$7, %esi	#,
	movq	%rax, %rdi	# tmp90,
	call	xmReadByte	#
	movb	%al, -1(%rbp)	# tmp91, statusRegVal
	.loc 1 512 0
	movzbl	-2(%rbp), %eax	# dOverflowMask, tmp92
	andb	-1(%rbp), %al	# statusRegVal, D.5145
	testb	%al, %al	# D.5145
	je	.L60	#,
	.loc 1 514 0
	movl	$1, %eax	#, D.5144
	jmp	.L61	#
.L60:
	.loc 1 516 0
	movl	$0, %eax	#, D.5144
.L61:
	.loc 1 517 0
	leave
	.cfi_def_cfa 7, 8
	ret
	.cfi_endproc
.LFE29:
	.size	mDataOverflow, .-mDataOverflow
	.section	.text.gWriteByte,"ax",@progbits
	.globl	gWriteByte
	.type	gWriteByte, @function
gWriteByte:
.LFB30:
	.loc 1 520 0
	.cfi_startproc
	pushq	%rbp	#
	.cfi_def_cfa_offset 16
	.cfi_offset 6, -16
	movq	%rsp, %rbp	#,
	.cfi_def_cfa_register 6
	subq	$16, %rsp	#,
	movq	%rdi, -8(%rbp)	# gyro, gyro
	movl	%esi, %ecx	# subAddress, tmp89
	movl	%edx, %eax	# data, tmp90
	movb	%cl, -12(%rbp)	# tmp89, subAddress
	movb	%al, -16(%rbp)	# tmp90, data
	.loc 1 521 0
	movzbl	-12(%rbp), %edx	# subAddress, D.5146
	movzbl	-16(%rbp), %ecx	# data, D.5146
	movq	-8(%rbp), %rax	# gyro, tmp91
	movl	%ecx, %esi	# D.5146,
	movq	%rax, %rdi	# tmp91,
	call	mraa_i2c_write_byte_data	#
	.loc 1 522 0
	nop
	leave
	.cfi_def_cfa 7, 8
	ret
	.cfi_endproc
.LFE30:
	.size	gWriteByte, .-gWriteByte
	.section	.text.xmWriteByte,"ax",@progbits
	.globl	xmWriteByte
	.type	xmWriteByte, @function
xmWriteByte:
.LFB31:
	.loc 1 525 0
	.cfi_startproc
	pushq	%rbp	#
	.cfi_def_cfa_offset 16
	.cfi_offset 6, -16
	movq	%rsp, %rbp	#,
	.cfi_def_cfa_register 6
	subq	$16, %rsp	#,
	movq	%rdi, -8(%rbp)	# xm, xm
	movl	%esi, %ecx	# subAddress, tmp89
	movl	%edx, %eax	# data, tmp90
	movb	%cl, -12(%rbp)	# tmp89, subAddress
	movb	%al, -16(%rbp)	# tmp90, data
	.loc 1 526 0
	movzbl	-12(%rbp), %edx	# subAddress, D.5147
	movzbl	-16(%rbp), %ecx	# data, D.5147
	movq	-8(%rbp), %rax	# xm, tmp91
	movl	%ecx, %esi	# D.5147,
	movq	%rax, %rdi	# tmp91,
	call	mraa_i2c_write_byte_data	#
	.loc 1 527 0
	nop
	leave
	.cfi_def_cfa 7, 8
	ret
	.cfi_endproc
.LFE31:
	.size	xmWriteByte, .-xmWriteByte
	.section	.text.gReadByte,"ax",@progbits
	.globl	gReadByte
	.type	gReadByte, @function
gReadByte:
.LFB32:
	.loc 1 530 0
	.cfi_startproc
	pushq	%rbp	#
	.cfi_def_cfa_offset 16
	.cfi_offset 6, -16
	movq	%rsp, %rbp	#,
	.cfi_def_cfa_register 6
	subq	$16, %rsp	#,
	movq	%rdi, -8(%rbp)	# gyro, gyro
	movl	%esi, %eax	# subAddress, tmp91
	movb	%al, -12(%rbp)	# tmp91, subAddress
	.loc 1 531 0
	movzbl	-12(%rbp), %edx	# subAddress, D.5148
	movq	-8(%rbp), %rax	# gyro, tmp92
	movl	%edx, %esi	# D.5148,
	movq	%rax, %rdi	# tmp92,
	call	mraa_i2c_read_byte_data	#
	.loc 1 532 0
	leave
	.cfi_def_cfa 7, 8
	ret
	.cfi_endproc
.LFE32:
	.size	gReadByte, .-gReadByte
	.section	.text.gReadBytes,"ax",@progbits
	.globl	gReadBytes
	.type	gReadBytes, @function
gReadBytes:
.LFB33:
	.loc 1 535 0
	.cfi_startproc
	pushq	%rbp	#
	.cfi_def_cfa_offset 16
	.cfi_offset 6, -16
	movq	%rsp, %rbp	#,
	.cfi_def_cfa_register 6
	subq	$32, %rsp	#,
	movq	%rdi, -8(%rbp)	# gyro, gyro
	movq	%rdx, -24(%rbp)	# dest, dest
	movl	%ecx, %eax	# count, tmp91
	movb	%sil, -12(%rbp)	# tmp90, subAddress
	movb	%al, -16(%rbp)	# tmp91, count
	.loc 1 536 0
	movzbl	-16(%rbp), %ecx	# count, D.5150
	movzbl	-12(%rbp), %eax	# subAddress, tmp92
	orl	$-128, %eax	#, D.5151
	movzbl	%al, %esi	# D.5151, D.5150
	movq	-24(%rbp), %rdx	# dest, tmp93
	movq	-8(%rbp), %rax	# gyro, tmp94
	movq	%rax, %rdi	# tmp94,
	call	mraa_i2c_read_bytes_data	#
	.loc 1 537 0
	nop
	leave
	.cfi_def_cfa 7, 8
	ret
	.cfi_endproc
.LFE33:
	.size	gReadBytes, .-gReadBytes
	.section	.text.xmReadByte,"ax",@progbits
	.globl	xmReadByte
	.type	xmReadByte, @function
xmReadByte:
.LFB34:
	.loc 1 540 0
	.cfi_startproc
	pushq	%rbp	#
	.cfi_def_cfa_offset 16
	.cfi_offset 6, -16
	movq	%rsp, %rbp	#,
	.cfi_def_cfa_register 6
	subq	$16, %rsp	#,
	movq	%rdi, -8(%rbp)	# xm, xm
	movl	%esi, %eax	# subAddress, tmp91
	movb	%al, -12(%rbp)	# tmp91, subAddress
	.loc 1 541 0
	movzbl	-12(%rbp), %edx	# subAddress, D.5152
	movq	-8(%rbp), %rax	# xm, tmp92
	movl	%edx, %esi	# D.5152,
	movq	%rax, %rdi	# tmp92,
	call	mraa_i2c_read_byte_data	#
	.loc 1 542 0
	leave
	.cfi_def_cfa 7, 8
	ret
	.cfi_endproc
.LFE34:
	.size	xmReadByte, .-xmReadByte
	.section	.text.xmReadBytes,"ax",@progbits
	.globl	xmReadBytes
	.type	xmReadBytes, @function
xmReadBytes:
.LFB35:
	.loc 1 545 0
	.cfi_startproc
	pushq	%rbp	#
	.cfi_def_cfa_offset 16
	.cfi_offset 6, -16
	movq	%rsp, %rbp	#,
	.cfi_def_cfa_register 6
	subq	$32, %rsp	#,
	movq	%rdi, -8(%rbp)	# xm, xm
	movq	%rdx, -24(%rbp)	# dest, dest
	movl	%ecx, %eax	# count, tmp91
	movb	%sil, -12(%rbp)	# tmp90, subAddress
	movb	%al, -16(%rbp)	# tmp91, count
	.loc 1 546 0
	movzbl	-16(%rbp), %ecx	# count, D.5154
	movzbl	-12(%rbp), %eax	# subAddress, tmp92
	orl	$-128, %eax	#, D.5155
	movzbl	%al, %esi	# D.5155, D.5154
	movq	-24(%rbp), %rdx	# dest, tmp93
	movq	-8(%rbp), %rax	# xm, tmp94
	movq	%rax, %rdi	# tmp94,
	call	mraa_i2c_read_bytes_data	#
	.loc 1 547 0
	nop
	leave
	.cfi_def_cfa 7, 8
	ret
	.cfi_endproc
.LFE35:
	.size	xmReadBytes, .-xmReadBytes
	.section	.rodata
	.align 4
.LC1:
	.long	1005912064
	.align 4
.LC2:
	.long	1014628352
	.align 4
.LC3:
	.long	1031405568
	.align 8
.LC4:
	.long	0
	.long	1072693248
	.align 8
.LC5:
	.long	0
	.long	1088421888
	.align 4
.LC6:
	.long	973078528
	.align 4
.LC7:
	.long	947912704
	.text
.Letext0:
	.file 2 "/usr/include/stdint.h"
	.file 3 "/usr/include/mraa/i2c.h"
	.file 4 "src/main/drivers/SFE_LSM9DS0.h"
	.section	.note.GNU-stack,"",@progbits
