	.file	"system.c"
# GNU C99 (Ubuntu 5.4.1-2ubuntu1~16.04) version 5.4.1 20160904 (x86_64-linux-gnu)
#	compiled by GNU C version 5.4.1 20160904, GMP version 6.1.0, MPFR version 3.1.4, MPC version 1.0.3
# GGC heuristics: --param ggc-min-expand=100 --param ggc-min-heapsize=131072
# options passed:  -fpreprocessed system.i -mtune=generic -march=x86-64 -g
# -std=gnu99 -ffunction-sections -fdata-sections -fverbose-asm
# -ffat-lto-objects -fstack-protector-strong -Wformat -Wformat-security
# options enabled:  -faggressive-loop-optimizations
# -fasynchronous-unwind-tables -fauto-inc-dec -fchkp-check-incomplete-type
# -fchkp-check-read -fchkp-check-write -fchkp-instrument-calls
# -fchkp-narrow-bounds -fchkp-optimize -fchkp-store-bounds
# -fchkp-use-static-bounds -fchkp-use-static-const-bounds
# -fchkp-use-wrappers -fcommon -fdata-sections -fdelete-null-pointer-checks
# -fdwarf2-cfi-asm -fearly-inlining -feliminate-unused-debug-types
# -ffunction-cse -ffunction-sections -fgcse-lm -fgnu-runtime -fgnu-unique
# -fident -finline-atomics -fira-hoist-pressure -fira-share-save-slots
# -fira-share-spill-slots -fivopts -fkeep-static-consts
# -fleading-underscore -flifetime-dse -flto-odr-type-merging -fmath-errno
# -fmerge-debug-strings -fpeephole -fprefetch-loop-arrays
# -freg-struct-return -fsched-critical-path-heuristic
# -fsched-dep-count-heuristic -fsched-group-heuristic -fsched-interblock
# -fsched-last-insn-heuristic -fsched-rank-heuristic -fsched-spec
# -fsched-spec-insn-heuristic -fsched-stalled-insns-dep -fschedule-fusion
# -fsemantic-interposition -fshow-column -fsigned-zeros
# -fsplit-ivs-in-unroller -fstack-protector-strong -fstdarg-opt
# -fstrict-volatile-bitfields -fsync-libcalls -ftrapping-math
# -ftree-coalesce-vars -ftree-cselim -ftree-forwprop -ftree-loop-if-convert
# -ftree-loop-im -ftree-loop-ivcanon -ftree-loop-optimize
# -ftree-parallelize-loops= -ftree-phiprop -ftree-reassoc -ftree-scev-cprop
# -funit-at-a-time -funwind-tables -fverbose-asm -fzero-initialized-in-bss
# -m128bit-long-double -m64 -m80387 -malign-stringops
# -mavx256-split-unaligned-load -mavx256-split-unaligned-store
# -mfancy-math-387 -mfp-ret-in-387 -mfxsr -mglibc -mieee-fp
# -mlong-double-80 -mmmx -mno-sse4 -mpush-args -mred-zone -msse -msse2
# -mtls-direct-seg-refs -mvzeroupper

	.text
.Ltext0:
	.comm	U_ID_0,4,4
	.comm	U_ID_1,4,4
	.comm	U_ID_2,4,4
	.comm	receiveLength,4,4
	.comm	__pg_registry_start,8,8
	.comm	__pg_registry_end,8,8
	.comm	__pg_resetdata_start,8,8
	.comm	__pg_resetdata_end,8,8
	.comm	sensorSelectionConfig_System,3,1
	.comm	sensorAlignmentConfig_System,12,8
	.comm	sensorTrims_System,12,8
	.section	.bss.usTicks,"aw",@nobits
	.align 4
	.type	usTicks, @object
	.size	usTicks, 4
usTicks:
	.zero	4
	.section	.bss.sysTickUptime,"aw",@nobits
	.align 4
	.type	sysTickUptime, @object
	.size	sysTickUptime, 4
sysTickUptime:
	.zero	4
	.comm	start,16,16
	.comm	current,16,16
	.comm	imu,8,8
	.comm	mag,16,16
	.comm	acc,24,16
	.comm	gyro,40,32
	.section	.text.micros,"ax",@progbits
	.globl	micros
	.type	micros, @function
micros:
.LFB13:
	.file 1 "src/main/drivers/system.c"
	.loc 1 76 0
	.cfi_startproc
	pushq	%rbp	#
	.cfi_def_cfa_offset 16
	.cfi_offset 6, -16
	movq	%rsp, %rbp	#,
	.cfi_def_cfa_register 6
	.loc 1 77 0
	movl	$current, %esi	#,
	movl	$4, %edi	#,
	call	clock_gettime	#
	.loc 1 78 0
	movq	current(%rip), %rdx	# current.tv_sec, D.5772
	movq	start(%rip), %rax	# start.tv_sec, D.5772
	subq	%rax, %rdx	# D.5772, D.5772
	movq	%rdx, %rax	# D.5772, D.5772
	imulq	$1000000000, %rax, %rdx	#, D.5772, D.5772
	movq	current+8(%rip), %rax	# current.tv_nsec, D.5772
	addq	%rax, %rdx	# D.5772, D.5772
	movq	start+8(%rip), %rax	# start.tv_nsec, D.5772
	movq	%rdx, %rcx	# D.5772, D.5772
	subq	%rax, %rcx	# D.5772, D.5772
	movabsq	$2361183241434822607, %rdx	#, tmp101
	movq	%rcx, %rax	# D.5772, tmp105
	imulq	%rdx	# tmp101
	sarq	$7, %rdx	#, tmp102
	movq	%rcx, %rax	# D.5772, tmp103
	sarq	$63, %rax	#, tmp103
	subq	%rax, %rdx	# tmp103, D.5772
	movq	%rdx, %rax	# D.5772, D.5772
	movl	%eax, sysTickUptime(%rip)	# D.5773, sysTickUptime
	.loc 1 79 0
	movl	sysTickUptime(%rip), %eax	# sysTickUptime, D.5773
	movl	%eax, usTicks(%rip)	# D.5773, usTicks
	.loc 1 82 0
	movl	sysTickUptime(%rip), %eax	# sysTickUptime, D.5774
	.loc 1 83 0
	popq	%rbp	#
	.cfi_def_cfa 7, 8
	ret
	.cfi_endproc
.LFE13:
	.size	micros, .-micros
	.section	.text.millis,"ax",@progbits
	.globl	millis
	.type	millis, @function
millis:
.LFB14:
	.loc 1 87 0
	.cfi_startproc
	pushq	%rbp	#
	.cfi_def_cfa_offset 16
	.cfi_offset 6, -16
	movq	%rsp, %rbp	#,
	.cfi_def_cfa_register 6
	.loc 1 88 0
	movl	sysTickUptime(%rip), %eax	# sysTickUptime, D.5775
	movl	$274877907, %edx	#, tmp91
	mull	%edx	# tmp91
	movl	%edx, %eax	# tmp90, D.5776
	shrl	$6, %eax	#, D.5776
	.loc 1 89 0
	popq	%rbp	#
	.cfi_def_cfa 7, 8
	ret
	.cfi_endproc
.LFE14:
	.size	millis, .-millis
	.section	.rodata
	.align 8
.LC0:
	.string	"the sensor initialization result is 0x%x\n"
	.section	.text.init_sensors,"ax",@progbits
	.globl	init_sensors
	.type	init_sensors, @function
init_sensors:
.LFB15:
	.loc 1 93 0
	.cfi_startproc
	pushq	%rbp	#
	.cfi_def_cfa_offset 16
	.cfi_offset 6, -16
	movq	%rsp, %rbp	#,
	.cfi_def_cfa_register 6
	subq	$16, %rsp	#,
	.loc 1 95 0
	movl	$64, %edi	#,
	call	malloc	#
	movq	%rax, imu(%rip)	# D.5777, imu
	.loc 1 97 0
	movl	$mag, %edi	#,
	call	sparkfun_compass_Detect	#
	.loc 1 98 0
	movl	$8, %edi	#,
	call	sensorsSet	#
	.loc 1 100 0
	movl	$acc, %edi	#,
	call	sparkfun_acc_Detect	#
	.loc 1 101 0
	movl	$2, %edi	#,
	call	sensorsSet	#
	.loc 1 104 0
	movl	$gyro, %edi	#,
	call	sparkfun_gyro_detect	#
	.loc 1 105 0
	movl	$1, %edi	#,
	call	sensorsSet	#
	.loc 1 108 0
	movq	imu(%rip), %rax	# imu, D.5778
	movl	$29, %edx	#,
	movl	$107, %esi	#,
	movq	%rax, %rdi	# D.5778,
	call	imu_setup	#
	.loc 1 109 0
	movq	imu(%rip), %rax	# imu, D.5778
	subq	$8, %rsp	#,
	pushq	$1	#
	movl	$3, %r9d	#,
	movl	$5, %r8d	#,
	movl	$1, %ecx	#,
	movl	$1, %edx	#,
	movl	$1, %esi	#,
	movq	%rax, %rdi	# D.5778,
	call	begin	#
	addq	$16, %rsp	#,
	movw	%ax, -2(%rbp)	# tmp92, imuResult
	.loc 1 110 0
	movzwl	-2(%rbp), %eax	# imuResult, D.5779
	movl	%eax, %esi	# D.5779,
	movl	$.LC0, %edi	#,
	movl	$0, %eax	#,
	call	printf	#
	.loc 1 111 0
	nop
	.loc 1 112 0
	leave
	.cfi_def_cfa 7, 8
	ret
	.cfi_endproc
.LFE15:
	.size	init_sensors, .-init_sensors
	.section	.text.systemInit,"ax",@progbits
	.globl	systemInit
	.type	systemInit, @function
systemInit:
.LFB16:
	.loc 1 118 0
	.cfi_startproc
	pushq	%rbp	#
	.cfi_def_cfa_offset 16
	.cfi_offset 6, -16
	movq	%rsp, %rbp	#,
	.cfi_def_cfa_register 6
	.loc 1 119 0
	call	usartInitAllIOSignals	#
	.loc 1 121 0
	movl	$start, %esi	#,
	movl	$4, %edi	#,
	call	clock_gettime	#
	.loc 1 124 0
	nop
	popq	%rbp	#
	.cfi_def_cfa 7, 8
	ret
	.cfi_endproc
.LFE16:
	.size	systemInit, .-systemInit
	.section	.text.delay,"ax",@progbits
	.globl	delay
	.type	delay, @function
delay:
.LFB17:
	.loc 1 127 0
	.cfi_startproc
	pushq	%rbp	#
	.cfi_def_cfa_offset 16
	.cfi_offset 6, -16
	movq	%rsp, %rbp	#,
	.cfi_def_cfa_register 6
	subq	$16, %rsp	#,
	movl	%edi, -4(%rbp)	# ms, ms
	.loc 1 128 0
	movl	-4(%rbp), %eax	# ms, tmp88
	imull	$1000, %eax, %eax	#, tmp88, D.5781
	movl	%eax, %edi	# D.5781,
	call	usleep	#
	.loc 1 129 0
	nop
	leave
	.cfi_def_cfa 7, 8
	ret
	.cfi_endproc
.LFE17:
	.size	delay, .-delay
	.text
.Letext0:
	.file 2 "/usr/include/stdint.h"
	.file 3 "/usr/include/x86_64-linux-gnu/bits/types.h"
	.file 4 "/usr/include/time.h"
	.file 5 "/usr/include/mraa/i2c.h"
	.file 6 "./src/main/drivers/SFE_LSM9DS0.h"
	.file 7 "./src/main/drivers/sensor.h"
	.file 8 "./src/main/drivers/drivers_compass.h"
	.file 9 "./src/main/drivers/accgyro.h"
	.file 10 "./src/main/config/parameter_group.h"
	.file 11 "./src/main/sensors/sensors.h"
	.file 12 "./src/main/target/edison/target.h"
	.file 13 "src/main/drivers/serial_uart.h"
	.section	.note.GNU-stack,"",@progbits
